(lp0
F5.5943395632748185
aF5.597310230145684
aF5.5939676086489944
aF5.592478405097527
aF5.596197263976263
aF5.592105757431579
aF5.588371623144873
aF5.582367852765768
aF5.578974824062853
aF5.576327819303087
aF5.592105757431579
aF5.580861261143694
aF5.575191240283214
aF5.5801071132949795
aF5.584998938666234
aF5.577841251298354
aF5.591732970847578
aF5.5939676086489944
aF5.587623120115915
aF5.5801071132949795
aF5.580484258311707
aF5.574432802628352
aF5.5842479059610115
aF5.584998938666234
aF5.5939676086489944
aF5.591732970847578
aF5.58799744166249
aF5.58799744166249
aF5.582744146279145
aF5.576327819303087
aF5.574432802628352
aF5.566051801190121
aF5.567962751513666
aF5.566816619583044
aF5.564520407322694
aF5.560681631015528
aF5.556055562626746
aF5.559912104236499
aF5.5583712718823435
aF5.557214087568064
aF5.563370320939456
aF5.5675808534758
aF5.586499314041468
aF5.595825999817554
aF5.589493328254074
aF5.5902404332570725
aF5.582744146279145
aF5.572534188046247
aF5.572154032177765
aF5.5706319618686955
aF5.590613776550563
aF5.605802066295998
aF5.605802066295998
aF5.614951260949585
aF5.607271574275357
aF5.5943395632748185
aF5.573673789309181
aF5.566434283504978
aF5.566816619583044
aF5.571393286610456
aF5.572534188046247
aF5.571773731735836
aF5.574812093359241
aF5.568726110329361
aF5.571393286610456
aF5.571393286610456
aF5.566434283504978
aF5.5626028611934215
aF5.5595271186687025
aF5.552571912887299
aF5.553347106724568
aF5.553347106724568
aF5.5626028611934215
aF5.556441886757492
aF5.560681631015528
aF5.559912104236499
aF5.564137192142683
aF5.556441886757492
aF5.5583712718823435
aF5.561834812000519
aF5.560296941647445
aF5.560296941647445
aF5.574812093359241
aF5.575949103146316
aF5.567962751513666
aF5.580484258311707
aF5.580861261143694
aF5.575949103146316
aF5.578974824062853
aF5.578597109233056
aF5.577084821610244
aF5.577084821610244
aF5.586124431187969
aF5.575191240283214
aF5.575191240283214
aF5.577463107977531
aF5.581238121898107
aF5.58724865840025
aF5.58799744166249
aF5.583120298248974
aF5.584998938666234
aF5.583120298248974
aF5.5991624255260986
aF5.599902344168809
aF5.596197263976263
aF5.5928509139489195
aF5.591732970847578
aF5.6065370902173655
aF5.61458689585173
aF5.658436372889324
aF5.655991810819852
aF5.694741730004052
aF5.653190688540141
aF5.6503816979290855
aF5.658785108725465
aF5.637642672151656
aF5.624739267315748
aF5.626901430320244
aF5.627261336748458
aF5.6153154933338705
aF5.589866950526307
aF5.587623120115915
aF5.588371623144873
aF5.5842479059610115
aF5.58724865840025
aF5.5842479059610115
aF5.611667185748395
aF5.610570092934022
aF5.608738925969307
aF5.605802066295998
aF5.60947179518496
aF5.621125240975192
aF5.619675965359201
aF5.60138054103812
aF5.611667185748395
aF5.61458689585173
aF5.611667185748395
aF5.610570092934022
aF5.616771097666572
aF5.6153154933338705
aF5.628699668531845
aF5.623656430176916
aF5.605802066295998
aF5.604330395684541
aF5.599902344168809
aF5.599902344168809
aF5.605802066295998
aF5.591360045241914
aF5.589119566336061
aF5.586124431187969
aF5.583496308781699
aF5.586124431187969
aF5.588371623144873
aF5.595454597770573
aF5.591360045241914
aF5.587623120115915
aF5.586124431187969
aF5.593223284089137
aF5.5909869805108565
aF5.601011196620256
aF5.603225219664886
aF5.598421958998375
aF5.596939379038152
aF5.596939379038152
aF5.596568390349052
aF5.595825999817554
aF5.5909869805108565
aF5.588371623144873
aF5.589119566336061
aF5.588745664667843
aF5.585374243605899
aF5.591360045241914
aF5.5909869805108565
aF5.5928509139489195
aF5.591732970847578
aF5.592105757431579
aF5.588371623144873
aF5.591360045241914
aF5.611667185748395
aF5.621849091893515
aF5.612397912854348
aF5.623295223743515
aF5.621487231929371
aF5.624378451868933
aF5.620763118936109
aF5.635860458170742
aF5.631211781821365
aF5.6240175061873385
aF5.625820933186489
aF5.618224586294555
aF5.617861412148562
aF5.607638614103299
aF5.608372289851543
aF5.607271574275357
aF5.612032616046633
aF5.616771097666572
aF5.6185876285929695
aF5.612763076269032
aF5.60947179518496
aF5.6061696457892
aF5.60947179518496
aF5.61349300330874
aF5.60947179518496
aF5.669191029886582
aF5.669191029886582
aF5.640132447579745
aF5.665041646339771
aF5.661222860237405
aF5.681536865708881
aF5.666426688112432
aF5.674696893761104
aF5.670914871030584
aF5.6842598081673374
aF5.678122727875623
aF5.670225691127358
aF5.680513847716846
aF5.678464666671911
aF5.681877639268151
aF5.678464666671911
aF5.6777806721172
aF5.6722918075648305
aF5.672635745659364
aF5.676411277860069
aF5.680172609017068
aF5.681195975983405
aF5.674353663965389
aF5.664348405410794
aF5.6507332535663855
aF5.654942309236727
aF5.652489180268651
aF5.641907070938114
aF5.645446897643238
aF5.6461533618195645
aF5.633002292595154
aF5.631211781821365
aF5.62003848122324
aF5.62040086571715
aF5.623656430176916
aF5.625099952621732
aF5.630494678886369
aF5.636573724962751
aF5.638354669333745
aF5.635860458170742
aF5.635860458170742
aF5.633717600207914
aF5.635860458170742
aF5.636573724962751
aF5.635860458170742
aF5.625460507880731
aF5.636573724962751
aF5.630853294633443
aF5.630853294633443
aF5.625820933186489
aF5.617498106059188
aF5.617861412148562
aF5.611301621862036
aF5.610935924289849
aF5.60947179518496
aF5.609105427714293
aF5.607271574275357
aF5.60947179518496
aF5.610935924289849
aF5.615679593101228
aF5.617498106059188
aF5.617861412148562
aF5.61349300330874
aF5.625460507880731
aF5.623656430176916
aF5.618950539139504
aF5.614951260949585
aF5.6153154933338705
aF5.6131281063880705
aF5.6080055192624325
aF5.612763076269032
aF5.614222397943558
aF5.629058928460265
aF5.627261336748458
aF5.628699668531845
aF5.637286483367837
aF5.634075062231381
aF5.621849091893515
aF5.631211781821365
aF5.625460507880731
aF5.629058928460265
aF5.635146682266063
aF5.626541394312754
aF5.629418059367339
aF5.631211781821365
aF5.633002292595154
aF5.631211781821365
aF5.629058928460265
aF5.634432396521408
aF5.630494678886369
aF5.648974238161206
aF5.665734407018671
aF5.661222860237405
aF5.6580875153940715
aF5.659133722987319
aF5.652138241503862
aF5.664695085948154
aF5.664001604644357
aF5.649678215663
aF5.64685932725658
aF5.647212123167807
aF5.643324505619087
aF5.632286472951131
aF5.632286472951131
aF5.631211781821365
aF5.633002292595154
aF5.640132447579745
aF5.6461533618195645
aF5.643678550586496
aF5.65704021210407
aF5.655292265495767
aF5.671259282950641
aF5.697093486505405
aF5.720967299410302
aF5.70877001616724
aF5.727499001273517
aF5.715052066914432
aF5.707442435487688
aF5.703115585668497
aF5.703449085754963
aF5.708438286192395
aF5.697764402330638
aF5.69910488510509
aF5.697093486505405
aF5.682899263739777
aF5.681877639268151
aF5.683579767338681
aF5.678806488586024
aF5.678122727875623
aF5.695414224985685
aF5.700777965635902
aF5.695414224985685
aF5.700443573390687
aF5.696422120249909
aF5.702448251643064
aF5.698099691520703
aF5.684599655239428
aF5.680172609017068
aF5.668845904775305
aF5.666426688112432
aF5.678122727875623
aF5.683579767338681
aF5.684599655239428
aF5.680513847716846
aF5.6736668507515775
aF5.66815529701305
aF5.678122727875623
aF5.681536865708881
aF5.6798312538336875
aF5.680513847716846
aF5.694741730004052
aF5.697429000684026
aF5.69608626802173
aF5.712411801354255
aF5.717027701406222
aF5.713072521563293
aF5.715381610499553
aF5.714062784063757
aF5.723911845951367
aF5.7242384832235835
aF5.711089049838639
aF5.709433146165015
aF5.702114417555504
aF5.706113089994483
aF5.702781974322617
aF5.708438286192395
aF5.712411801354255
aF5.709764546333749
aF5.709101636133801
aF5.711419901785413
aF5.701780471985528
aF5.71042701737487
aF5.721294899740832
aF5.715052066914432
aF5.711419901785413
aF5.716698699922747
aF5.716698699922747
aF5.719983853994209
aF5.731721843345443
aF5.739792912179234
aF5.741720313996593
aF5.740435792304236
aF5.737861788309064
aF5.737861788309064
aF5.731721843345443
aF5.744604469176457
aF5.741078259399898
aF5.744604469176457
aF5.747161197958146
aF5.744604469176457
aF5.735926927982768
aF5.7407570774475625
aF5.738183901373533
aF5.7407570774475625
aF5.736572297479192
aF5.73204593992906
aF5.736894826106403
aF5.742361956623676
aF5.7375395714543345
aF5.755742213586912
aF5.757639147446912
aF5.765191102784844
aF5.777032936395794
aF5.772997543677674
aF5.770194240175453
aF5.772375266121813
aF5.784747833479305
aF5.7899601708972535
aF5.786897381366708
aF5.795753753195012
aF5.786897381366708
aF5.793013608384144
aF5.798789578234536
aF5.786283696167945
aF5.784747833479305
aF5.790571604728592
aF5.781052110147502
aF5.7804348261772835
aF5.77081787599236
aF5.772686453303412
aF5.766131099720736
aF5.775482788821392
aF5.767383056065796
aF5.76456394691606
aF5.767695800399854
aF5.773930234558283
aF5.780743515792329
aF5.782285536144145
aF5.778889947143006
aF5.788429948716486
aF5.778580684731388
aF5.783825182329737
aF5.768320995793772
aF5.770194240175453
aF5.74748032992192
aF5.751301990624177
aF5.753207357983724
aF5.7477993600729755
aF5.740114403903592
aF5.739792912179234
aF5.738827816399001
aF5.745564008671156
aF5.757639147446912
aF5.757639147446912
aF5.760477818332746
aF5.757639147446912
aF5.755742213586912
aF5.767695800399854
aF5.7698822763607245
aF5.762680115903686
aF5.760477818332746
aF5.783517442675055
aF5.783825182329737
aF5.784747833479305
aF5.776103136235827
aF5.748755840298932
aF5.7420411867732915
aF5.738505910714586
aF5.717027701406222
aF5.715052066914432
aF5.720967299410302
aF5.722277057292366
aF5.718999440461062
aF5.728149831104496
aF5.722931293494962
aF5.734634938138965
aF5.726847747587197
aF5.750984076140496
aF5.749392985908253
aF5.750984076140496
aF5.746203190540153
aF5.760477818332746
aF5.752572638825633
aF5.759217181544302
aF5.7535245665510155
aF5.752572638825633
aF5.747161197958146
aF5.7477993600729755
aF5.734311679691024
aF5.734311679691024
aF5.728475087246572
aF5.726196069493101
aF5.725217755376266
aF5.737217250742439
aF5.744924417987376
aF5.743323649276734
aF5.7477993600729755
aF5.749392985908253
aF5.742361956623676
aF5.743644008081332
aF5.750029725821521
aF5.752890048763229
aF5.76456394691606
aF5.770506106699109
aF5.767695800399854
aF5.779508185184337
aF5.770194240175453
aF5.7595324897606925
aF5.766757273817589
aF5.766757273817589
aF5.757323241584231
aF5.761107541275471
aF5.761736867916757
aF5.770194240175453
aF5.777652323222656
aF5.7791991139409555
aF5.775793010632473
aF5.779508185184337
aF5.790265934544339
aF5.786897381366708
aF5.777652323222656
aF5.7720639820726065
aF5.769570215194204
aF5.781669013313272
aF5.77827132664694
aF5.776103136235827
aF5.7791991139409555
aF5.774862056337153
aF5.773930234558283
aF5.77734267776423
aF5.7745515455444085
aF5.767695800399854
aF5.770194240175453
aF5.761107541275471
aF5.7595324897606925
aF5.762680115903686
aF5.762680115903686
aF5.751301990624177
aF5.7506660605550515
aF5.745883650674837
aF5.744284417965531
aF5.747161197958146
aF5.745883650674837
aF5.74652262833236
aF5.742682623613757
aF5.7481182884762525
aF5.752572638825633
aF5.761107541275471
aF5.758270659940271
aF5.760477818332746
aF5.77081787599236
aF5.763308453970228
aF5.763622475012218
aF5.766757273817589
aF5.763308453970228
aF5.770194240175453
aF5.777032936395794
aF5.771441123130016
aF5.7720639820726065
aF5.780743515792329
aF5.781977322241258
aF5.765504533284198
aF5.7698822763607245
aF5.768945800562614
aF5.768008446955473
aF5.7670702138921195
aF5.762680115903686
aF5.771752601095469
aF5.767695800399854
aF5.770506106699109
aF5.763622475012218
aF5.762680115903686
aF5.761422254102616
aF5.763622475012218
aF5.762051382780177
aF5.763308453970228
aF5.7698822763607245
aF5.77734267776423
aF5.781360609301576
aF5.793623178655991
aF5.786897381366708
aF5.786590585843515
aF5.783209608287523
aF5.805134968916488
aF5.813831979800159
aF5.806940566758827
aF5.8185981490847825
aF5.832468815617524
aF5.84354441703136
aF5.8667513029343406
aF5.850476853807004
aF5.830121396699219
aF5.84759417668828
aF5.8527770273340884
aF5.85707564406933
aF5.859360706474645
aF5.855644823965447
aF5.857361562584502
aF5.847882818629958
aF5.848748244906387
aF5.863631175598097
aF5.874368775231734
aF5.860786223465865
aF5.871836059652451
aF5.875211590283732
aF5.8732439157205505
aF5.870708345972182
aF5.869296913133774
aF5.865901324132636
aF5.8805329864007
aF5.879974171074619
aF5.8738065036397495
aF5.8763342398543505
aF5.8794150432993595
aF5.892196545449313
aF5.905361848054571
aF5.912421339767529
aF5.907539312170221
aF5.919968545402912
aF5.911880067765139
aF5.915123313851259
aF5.91350300563827
aF5.916741000912046
aF5.911609321858518
aF5.917010361183034
aF5.945420608606575
aF5.9615206707349095
aF5.929057086979365
aF5.924523141354101
aF5.920237037819614
aF5.899349258200177
aF5.899349258200177
aF5.8805329864007
aF5.879135362134062
aF5.859360706474645
aF5.8522024797744745
aF5.855931151812786
aF5.8687317817256845
aF5.869579359117858
aF5.862494165811022
aF5.877735781779639
aF5.885270350701578
aF5.871836059652451
aF5.875492370855561
aF5.858789930203441
aF5.857361562584502
aF5.85707564406933
aF5.872117789475416
aF5.8771754007058545
aF5.8763342398543505
aF5.8794150432993595
aF5.857933154483459
aF5.870990393640108
aF5.871272361779576
aF5.8585044198517515
aF5.846438775057725
aF5.823341709713841
aF5.817111159963204
aF5.842964538789538
aF5.828651456702071
aF5.829533679961761
aF5.820379622240015
aF5.811739616161293
aF5.788429948716486
aF5.800001332396744
aF5.810841546949609
aF5.801816214927566
aF5.809642865355678
aF5.804833718725929
aF5.801816214927566
aF5.819786150412507
aF5.82363743646448
aF5.814727368607928
aF5.792098555704769
aF5.784440377673656
aF5.777032936395794
aF5.776413165691109
aF5.7791991139409555
aF5.788123623089952
aF5.789654313730165
aF5.792098555704769
aF5.791793351978915
aF5.789042318607025
aF5.785976712282188
aF5.788736180536365
aF5.791488055075306
aF5.788736180536365
aF5.787204082795274
aF5.809342970316694
aF5.815919974593051
aF5.8126368795682835
aF5.812935788552724
aF5.811739616161293
aF5.805436128382701
aF5.8126368795682835
aF5.810841546949609
aF5.826295049131593
aF5.83627165770228
aF5.8377304471659395
aF5.83129579495516
aF5.836855428880563
aF5.841803772553575
aF5.841513370344478
aF5.8547853481927286
aF5.85392513308592
aF5.8547853481927286
aF5.863347044327539
aF5.861355861760962
aF5.869579359117858
aF5.872681011118015
aF5.875492370855561
aF5.877455630496114
aF5.905906658746336
aF5.911338502628697
aF5.918893854273146
aF5.918625000931025
aF5.914043400139397
aF5.908082938168931
aF5.914043400139397
aF5.924255797414532
aF5.900992643943907
aF5.911609321858518
aF5.909169304381152
aF5.901266279189834
aF5.904271335405605
aF5.90454407507728
aF5.901266279189834
aF5.910254491682439
aF5.907267388307226
aF5.894953646727139
aF5.901266279189834
aF5.8888779583328805
aF5.8771754007058545
aF5.872962503026981
aF5.8763342398543505
aF5.8763342398543505
aF5.8888779583328805
aF5.897977704014518
aF5.896054362303324
aF5.892196545449313
aF5.890815138958052
aF5.8766147054290405
aF5.878575765029364
aF5.870708345972182
aF5.8562173976999565
aF5.851627601920183
aF5.84759417668828
aF5.842384324093829
aF5.850476853807004
aF5.8650506222523235
aF5.864766894062025
aF5.862494165811022
aF5.861355861760962
aF5.859645972487134
aF5.862778539479937
aF5.8524897948173935
aF5.845282036929901
aF5.844123959209273
aF5.84354441703136
aF5.842094090453713
aF5.850476853807004
aF5.855358414110991
aF5.84035091743822
aF5.84267447352282
aF5.849324779946859
aF5.849036553975704
aF5.863347044327539
aF5.8650506222523235
aF5.887491956725004
aF5.894953646727139
aF5.8971538676367405
aF5.892748574168825
aF5.905634290502789
aF5.899623343442402
aF5.888323788188469
aF5.878575765029364
aF5.872117789475416
aF5.853638230200579
aF5.857361562584502
aF5.862778539479937
aF5.8664680569332965
aF5.8673175543650995
aF5.878015854600402
aF5.879135362134062
aF5.890815138958052
aF5.890538628518022
aF5.895504155962071
aF5.903998521326706
aF5.903725632799975
aF5.89467827842029
aF5.8944028342648505
aF5.891920416771596
aF5.90317963224041
aF5.902633333401366
aF5.895779296973574
aF5.893024474294729
aF5.895228939227156
aF5.901266279189834
aF5.922650231107622
aF5.918087077303206
aF5.930918047239948
aF5.928258471204189
aF5.9351587108968875
aF5.9367443349077496
aF5.926125705799642
aF5.924523141354101
aF5.934894195619588
aF5.931714542702208
aF5.9301209168669295
aF5.947251392431657
aF5.945682354452854
aF5.942011663388452
aF5.942274302917211
aF5.928790952579924
aF5.930652407711224
aF5.929057086979365
aF5.931449114697996
aF5.937800022522289
aF5.947512659578799
aF5.947512659578799
aF5.959457750972896
aF5.9586830575836025
aF5.963579343618446
aF5.973809611869261
aF5.955578268543573
aF5.9441108507245115
aF5.951943788945699
aF5.959973880016611
aF5.9548005627363905
aF5.956096403270191
aF5.954022251632112
aF5.917548864157814
aF5.921310287184775
aF5.931183616223052
aF5.9325104042643115
aF5.930652407711224
aF5.921846480227112
aF5.922114468973189
aF5.926392550364267
aF5.9301209168669295
aF5.928258471204189
aF5.925591802957274
aF5.919162635352577
aF5.916471568066552
aF5.924255797414532
aF5.943324171780047
aF5.957649198613251
aF5.9589413554024215
aF5.9707515055104405
aF5.961005339623274
aF5.961005339623274
aF5.9604897428085515
aF5.958424693029782
aF5.968451772798909
aF5.961005339623274
aF5.952203833154679
aF5.940697430054329
aF5.949600343009283
aF5.948557046096705
aF5.946990057006152
aF5.940171252720432
aF5.957649198613251
aF5.96203573641717
aF5.980403599748557
aF5.983936280687191
aF5.98770749823027
aF5.984439932171018
aF5.988460038087683
aF5.988460038087683
aF5.9909644220663
aF5.982928216085695
aF5.984943330117717
aF5.979897910736517
aF5.981161654112085
aF5.972791281842361
aF5.991464547107982
aF5.982928216085695
aF5.987456525710443
aF5.986200717432883
aF5.9979435132056915
aF6.003887067106539
aF6.000424288479454
aF6.002157176646725
aF6.006599434692252
aF6.013226038889495
aF6.013715156042802
aF6.019079714140955
aF6.005860427391714
aF6.013470627370596
aF6.010776858140355
aF6.016888599448141
aF6.015913227510292
aF6.022720936758536
aF6.019079714140955
aF6.017619504584833
aF6.0090588555089335
aF6.018593214496234
aF6.017863020962513
aF6.021266038344772
aF6.020294928775859
aF6.021993752142805
aF6.020780601442035
aF6.028278520230698
aF6.032126528826872
aF6.028278520230698
aF6.030685260261263
aF6.028278520230698
aF6.049733455231958
aF6.063785208687608
aF6.049733455231958
aF6.0513830373192254
aF6.056315519427598
aF6.053969752459379
aF6.060290738037835
aF6.054674060505866
aF6.049969276480545
aF6.0390635259072605
aF6.016401032398013
aF6.007091802993681
aF6.012491914300058
aF6.022236205774735
aF6.022963214167353
aF6.022236205774735
aF6.021266038344772
aF6.009795503792706
aF6.01200219832553
aF6.020052003959894
aF6.026831690945273
aF6.017375928892483
aF5.996700813903228
aF5.995456568377519
aF5.998191867857408
aF5.998936561946683
aF5.992713766508414
aF5.992713766508414
aF6.01224708629051
aF5.992214265998528
aF6.008813185442595
aF6.015181073725298
aF6.019809020117124
aF6.0236896944027185
aF6.031165913959534
aF6.014204034077471
aF6.019079714140955
aF6.0292419114420115
aF6.031165913959534
aF6.018836493903833
aF6.017619504584833
aF5.988961416889864
aF5.9909644220663
aF6.001167322569367
aF6.000919705878737
aF5.983936280687191
aF5.984943330117717
aF5.981414211254481
aF5.9962033014551555
aF5.993462549770655
aF5.9740640324278145
aF5.978885764901122
aF5.993462549770655
aF5.993213017642099
aF5.995207533386816
aF6.005120873555468
aF6.000919705878737
aF5.998688392197302
aF5.997695096858618
aF5.978379307559327
aF5.991214515852772
aF6.000424288479454
aF6.008813185442595
aF6.0239317372454835
aF6.022720936758536
aF6.021023349349527
aF6.03572063836252
aF6.040254711277414
aF6.03882511846782
aF6.034524036568429
aF6.047608557726022
aF6.045005314036012
aF6.044768319130293
aF6.045715961939898
aF6.057486342649979
aF6.0656439452822335
aF6.060524083039477
aF6.0428703351678825
aF6.04310778025982
aF6.039301876522142
aF6.048081147526878
aF6.046189446797229
aF6.041444479413003
aF6.040016587690148
aF6.04381977744191
aF6.0421576614235
aF6.009550014654367
aF5.9942107727760074
aF5.996452088619021
aF5.996949477338552
aF6.004627533634263
aF5.992963423231718
aF5.978379307559327
aF5.97736562272848
aF5.981666704627871
aF5.980150787207709
aF5.985194934094387
aF5.988710758911361
aF5.986954391630096
aF5.96126303837486
aF5.966403116512611
aF5.96203573641717
aF5.963579343618446
aF5.973300576480311
aF5.977619140285929
aF5.973809611869261
aF5.96409335031185
aF5.936216072877503
aF5.937008361311923
aF5.938591057500914
aF5.949339620807311
aF5.936480238775222
aF5.9327755507593025
aF5.933570568689079
aF5.9482960517066035
aF5.938327448694853
aF5.947773858483249
aF5.945420608606575
aF5.957907763579139
aF5.951943788945699
aF5.9568731023383625
aF5.964607092938099
aF5.969985515430857
aF5.979897910736517
aF5.982171500196389
aF5.975081067857458
aF5.979391965873713
aF5.987456525710443
aF5.981919134264451
aF5.972026853215507
aF5.969218938160663
aF5.968451772798909
aF5.97609706997686
aF5.978632568292603
aF5.969474529216367
aF5.959199586520707
aF5.954541193003384
aF5.952723718791551
aF5.955319100471629
aF5.96255053694334
aF5.96409335031185
aF5.962807837858177
aF5.980909033168466
aF5.978125982668802
aF5.983432375410718
aF5.982171500196389
aF5.982676041074902
aF5.998688392197302
aF5.9979435132056915
aF5.997198078955742
aF6.001909804969521
aF5.992963423231718
aF5.981919134264451
aF5.980656348391379
aF5.990213765206329
aF5.985949366419872
aF5.987958407778694
aF5.988460038087683
aF5.998688392197302
aF6.012491914300058
aF6.010776858140355
aF6.009304465236313
aF6.011757250375744
aF6.009795503792706
aF6.004874234017899
aF6.003640123038116
aF6.008813185442595
aF6.006106823844852
aF6.009795503792706
aF6.006106823844852
aF5.9949584363622375
aF5.986703230006271
aF5.979897910736517
aF5.965890295988552
aF5.971261839790462
aF5.974318388273011
aF5.96563378707346
aF5.967940002061025
aF5.971261839790462
aF5.972536537222463
aF5.975081067857458
aF5.976350909297934
aF5.975081067857458
aF5.973809611869261
aF5.993213017642099
aF5.989462544437309
aF5.991464547107982
aF5.992214265998528
aF5.986954391630096
aF5.983684359789019
aF5.988710758911361
aF5.988710758911361
aF5.998440160844408
aF6.002898924733645
aF6.002898924733645
aF6.009550014654367
aF6.024657514463746
aF6.022236205774735
aF6.021993752142805
aF6.015913227510292
aF6.01028630134857
aF6.012981390570231
aF6.011757250375744
aF5.998191867857408
aF6.01224708629051
aF6.016888599448141
aF6.015181073725298
aF6.01151224241176
aF6.006599434692252
aF5.991964422149633
aF5.996700813903228
aF5.995954452380834
aF5.9909644220663
aF5.991964422149633
aF5.997198078955742
aF5.994709277272871
aF6.001909804969521
aF6.007337896264272
aF6.004627533634263
aF6.004627533634263
aF6.007583928987866
aF6.004627533634263
aF6.004627533634263
aF6.014692673227189
aF6.012981390570231
aF6.020294928775859
aF6.019565977218857
aF6.0105316098252075
aF6.015425184552825
aF6.022478600637151
aF6.024899323194219
aF6.035959786994534
aF6.037870919922137
aF6.037393478996382
aF6.035959786994534
aF6.037870919922137
aF6.039301876522142
aF6.039778407386533
aF6.048317358700765
aF6.046189446797229
aF6.045715961939898
aF6.045005314036012
aF6.0292419114420115
aF6.037632227952989
aF6.042395275776525
aF6.035481432524756
aF6.039301876522142
aF6.040968742011071
aF6.052794802259588
aF6.052794802259588
aF6.051147549269156
aF6.058422015232863
aF6.063785208687608
aF6.060524083039477
aF6.059823884621325
aF6.05584680603725
aF6.059123195581797
aF6.059123195581797
aF6.064017739789691
aF6.056315519427598
aF6.056315519427598
aF6.068888444072786
aF6.071661089102259
aF6.07073772800249
aF6.074656137994746
aF6.077871574848721
aF6.080619458418875
aF6.075116119603592
aF6.083131735633806
aF6.080619458418875
aF6.086092676186764
aF6.0874563127617085
aF6.097624742936373
aF6.0994216886130745
aF6.10412336524692
aF6.1023348559394055
aF6.105908681498851
aF6.107690816076114
aF6.107468222864288
aF6.114124559843869
aF6.118757772765358
aF6.111689044414351
aF6.118097198041348
aF6.116333529153851
aF6.120077614575958
aF6.122712083717655
aF6.121834698269836
aF6.120077614575958
aF6.121615231573027
aF6.118977867406942
aF6.109469780298887
aF6.088137434368242
aF6.080390756302384
aF6.07235305084132
aF6.085637717125231
aF6.084727177567672
aF6.0888180923638915
aF6.092214450208125
aF6.089951493822636
aF6.094697801749634
aF6.093118200834482
aF6.092214450208125
aF6.090857290986017
aF6.092440464447984
aF6.091536100832197
aF6.097849537811996
aF6.09807428216624
aF6.095824562432225
aF6.082447194819853
aF6.082675427161366
aF6.082675427161366
aF6.062155975230515
aF6.0586557966483054
aF6.056315519427598
aF6.049969276480545
aF6.036198878448153
aF6.0428703351678825
aF6.0454791354142206
aF6.057252287645985
aF6.055143323771165
aF6.0513830373192254
aF6.045952732392052
aF6.046426105181957
aF6.048317358700765
aF6.055612366931734
aF6.046426105181957
aF6.0586557966483054
aF6.05584680603725
aF6.057720342885047
aF6.057720342885047
aF6.057486342649979
aF6.05818817915089
aF6.057018177847421
aF6.054674060505866
aF6.054674060505866
aF6.044768319130293
aF6.045005314036012
aF6.043345168984971
aF6.0335657231266175
aF6.024899323194219
aF6.029723259225072
aF6.025382765311443
aF6.0239317372454835
aF6.03524216945387
aF6.043582501370088
aF6.0407307884109
aF6.053734872834107
aF6.05584680603725
aF6.053264948013429
aF6.059123195581797
aF6.0579542883768145
aF6.05584680603725
aF6.059123195581797
aF6.076265148800447
aF6.0758056955417326
aF6.077871574848721
aF6.075575889726634
aF6.0739657686197255
aF6.080162001869269
aF6.075346031088684
aF6.07073772800249
aF6.07073772800249
aF6.075575889726634
aF6.071891796220597
aF6.075116119603592
aF6.0879104453762345
aF6.091309882077698
aF6.091762268423346
aF6.101663339406057
aF6.098972754823267
aF6.098972754823267
aF6.094923255476212
aF6.094472297182211
aF6.094697801749634
aF6.085182550981734
aF6.0844994130751715
aF6.0844994130751715
aF6.068425588244111
aF6.0588895234227715
aF6.054439346269371
aF6.052324435364745
aF6.051618469927729
aF6.054204576929168
aF6.057252287645985
aF6.0579542883768145
aF6.060290738037835
aF6.059123195581797
aF6.054439346269371
aF6.054439346269371
aF6.052089168924417
aF6.056315519427598
aF6.059123195581797
aF6.056549793763916
aF6.0553778728516345
aF6.061223791522835
aF6.062388885444681
aF6.061456918928017
aF6.060524083039477
aF6.053264948013429
aF6.050440752208279
aF6.057486342649979
aF6.071430328745864
aF6.0758056955417326
aF6.074426067822329
aF6.075116119603592
aF6.073505257444191
aF6.073505257444191
aF6.07993319509559
aF6.0785592539589155
aF6.07073772800249
aF6.077871574848721
aF6.0739657686197255
aF6.071661089102259
aF6.06262174142431
aF6.062854543194655
aF6.065876044621792
aF6.065411792060065
aF6.053969752459379
aF6.054439346269371
aF6.05818817915089
aF6.059123195581797
aF6.056784013228625
aF6.044768319130293
aF6.040492778175336
aF6.039301876522142
aF6.041919990596475
aF6.043345168984971
aF6.046426105181957
aF6.041444479413003
aF6.0333260012029
aF6.03524216945387
aF6.037154673025098
aF6.038109554931026
aF6.0390635259072605
aF6.040016587690148
aF6.038348133006832
aF6.03882511846782
aF6.035959786994534
aF6.0333260012029
aF6.046899253996083
aF6.049969276480545
aF6.046662707572744
aF6.056315519427598
aF6.056784013228625
aF6.054204576929168
aF6.050912005751402
aF6.058422015232863
aF6.056549793763916
aF6.063785208687608
aF6.05818817915089
aF6.062388885444681
aF6.077412859244347
aF6.084043728401075
aF6.081305251107771
aF6.088137434368242
aF6.083815808172168
aF6.083359811812238
aF6.090857290986017
aF6.094021135433074
aF6.086547428354674
aF6.086547428354674
aF6.0844994130751715
aF6.080848108242668
aF6.082447194819853
aF6.077642243349034
aF6.056549793763916
aF6.057720342885047
aF6.056081190193955
aF6.050205042130582
aF6.059590376155582
aF6.050440752208279
aF6.048553514092109
aF6.054439346269371
aF6.057252287645985
aF6.055612366931734
aF6.049969276480545
aF6.042395275776525
aF6.04310778025982
aF6.045005314036012
aF6.04381977744191
aF6.046899253996083
aF6.053499938027435
aF6.055612366931734
aF6.050912005751402
aF6.053734872834107
aF6.052089168924417
aF6.052794802259588
aF6.060290738037835
aF6.064482639844554
aF6.061923010756543
aF6.068657042937888
aF6.070044647230839
aF6.07970433595739
aF6.084043728401075
aF6.083587835983788
aF6.07970433595739
aF6.080619458418875
aF6.076035448558252
aF6.080162001869269
aF6.101887228358073
aF6.107245580093692
aF6.09964607995251
aF6.098298976021809
aF6.101215411067101
aF6.0994216886130745
aF6.091309882077698
aF6.0867747269123065
aF6.079475424430695
aF6.0870019738170456
aF6.0867747269123065
aF6.087229169092361
aF6.085182550981734
aF6.085637717125231
aF6.084954890195321
aF6.0870019738170456
aF6.0787883752796565
aF6.075116119603592
aF6.097399897516651
aF6.101663339406057
aF6.095374010498493
aF6.100767281998432
aF6.0994216886130745
aF6.099197246910864
aF6.107245580093692
aF6.107245580093692
aF6.107690816076114
aF6.111467339502679
aF6.1070228877422545
aF6.109469780298887
aF6.120956542340736
aF6.130791612329081
aF6.129268051255177
aF6.148254597872171
aF6.153370788951002
aF6.156978985585555
aF6.163104255555076
aF6.144400203378695
aF6.137943013486706
aF6.146115101976891
aF6.143756357450241
aF6.15209419303295
aF6.159306782637103
aF6.161207321695077
aF6.149322631723562
aF6.148895555056811
aF6.150815965334412
aF6.1452580202873985
aF6.160151912626133
aF6.164156554926094
aF6.162261618049983
aF6.170238150686251
aF6.169610732491456
aF6.173369350405594
aF6.160785291724685
aF6.155494833929685
aF6.15038952609554
aF6.163104255555076
aF6.161207321695077
aF6.155070385705995
aF6.140961558253893
aF6.145900900412401
aF6.1452580202873985
aF6.149109116189496
aF6.159095388491933
aF6.160785291724685
aF6.164156554926094
aF6.161629173631305
aF6.158037746933798
aF6.158460937799191
aF6.144614726601657
aF6.138374792422603
aF6.141607205537701
aF6.1396690117576975
aF6.122931309850288
aF6.129703591331748
aF6.135781317876221
aF6.147185422104758
aF6.151242222800372
aF6.149749526073696
aF6.148895555056811
aF6.153583396584417
aF6.151242222800372
aF6.171282973683818
aF6.1872369016260595
aF6.1911347422365495
aF6.18476725641117
aF6.196647773045199
aF6.203951518233663
aF6.20010341221931
aF6.202737925851705
aF6.207382053330452
aF6.205769149754987
aF6.211804171089457
aF6.218600119691729
aF6.212606095751519
aF6.22436038986487
aF6.226734278220032
aF6.2197946251094915
aF6.233037233890559
aF6.235978124158384
aF6.246494287284514
aF6.255174060168853
aF6.273442884143084
aF6.26530121273771
aF6.29156913955832
aF6.270799378071934
aF6.245137303457015
aF6.231858451828719
aF6.228313745478304
aF6.224162311227003
aF6.232055012025913
aF6.230087669270578
aF6.203951518233663
aF6.22317132908268
aF6.226141334235865
aF6.220788957497273
aF6.2211864137823145
aF6.230481447578482
aF6.248816269751929
aF6.248816269751929
aF6.2482362794021755
aF6.247849432201994
aF6.247849432201994
aF6.281705841954686
aF6.282266746896006
aF6.280395838960195
aF6.291013429624597
aF6.289901082457623
aF6.311734809152915
aF6.306640183868685
aF6.308644740348575
aF6.308644740348575
aF6.32310369457549
aF6.3202285802858755
aF6.331145914670143
aF6.334699578680012
aF6.322385690595623
aF6.327400925897314
aF6.340888264332522
aF6.3157195997906035
aF6.327936783729195
aF6.326328348032599
aF6.338240658867467
aF6.332568896055757
aF6.335054251498059
aF6.325433653511077
aF6.343528878489031
aF6.349313801274483
aF6.347914465730417
aF6.353326017734014
aF6.351234695954017
aF6.340711975217918
aF6.351409139914337
aF6.34651316930213
aF6.314453433391908
aF6.33930054237951
aF6.342297459563081
aF6.310463584065713
aF6.311916280889189
aF6.304448802421981
aF6.304997098149872
aF6.30755184406493
aF6.316984165039059
aF6.312823145919147
aF6.3211279417998645
aF6.320588421959424
aF6.319328409192595
aF6.318066806790422
aF6.325970566275652
aF6.325075551448163
aF6.3252546185092555
aF6.3318576584724315
aF6.338947372677799
aF6.3452854220638075
aF6.3454609068409535
aF6.336825731146441
aF6.341945346883387
aF6.323821183395508
aF6.316081067352825
aF6.309918278226516
aF6.3035343076165935
aF6.293049524728755
aF6.303168275401672
aF6.3133668704454555
aF6.322026495189462
aF6.320948134193518
aF6.322924241905651
aF6.316261752148692
aF6.320588421959424
aF6.3178864478756935
aF6.315358001522335
aF6.311008592708507
aF6.329007638730688
aF6.327400925897314
aF6.342121418721152
aF6.343880434126331
aF6.351757936569426
aF6.378256389950525
aF6.3768970014659105
aF6.36784407432105
aF6.382154369633992
aF6.379105070303594
aF6.378935391843868
aF6.390911582890583
aF6.392921633818608
aF6.381646798351629
aF6.396929655216146
aF6.402746040537586
aF6.3959291548825625
aF6.393590753950631
aF6.395094639270416
aF6.397096307995467
aF6.421622267806518
aF6.435348765120091
aF6.463341420735398
aF6.4698702796178615
aF6.453624998892692
aF6.461936816524757
aF6.460217394452065
aF6.452837287154442
aF6.462561328644976
aF6.466144724237619
aF6.485093146045451
aF6.482495543545793
aF6.493602542476407
aF6.505485061770492
aF6.5172280432381795
aF6.521945728532414
aF6.528104105766952
aF6.53058604002882
aF6.5289807861270175
aF6.552079835376488
aF6.5638555265321274
aF6.586585362369367
aF6.592633490771575
aF6.5720027832852725
aF6.578417531261524
aF6.540163823302054
aF6.572981598996505
aF6.542327857905503
aF6.533643478531968
aF6.489964521183336
aF6.493148512956689
aF6.513823406687646
aF6.507277712385012
aF6.478970365552356
aF6.484482552224008
aF6.481270803649897
aF6.482036441846705
aF6.499486243541238
aF6.490723534502507
aF6.469560346251054
aF6.458808392262012
aF6.460842980959799
aF6.4692503167957724
aF6.459278280280682
aF6.446830313669605
aF6.440627510481866
aF6.4245448222491195
aF6.410996912427582
aF6.4152606119008695
aF6.403077385802381
aF6.34651316930213
aF6.359227788032134
aF6.370585679876545
aF6.362338210446527
aF6.361129751084959
aF6.35905470278722
aF6.380292014063123
aF6.3875524934035495
aF6.372466183037772
aF6.372807713095737
aF6.374513615931814
aF6.389065480159345
aF6.372978434393633
aF6.396429530174464
aF6.422597401964724
aF6.421297011664441
aF6.438551329906966
aF6.442062345323486
aF6.4454023086669245
aF6.452994879149095
aF6.456455634530173
aF6.445243515494697
aF6.448256282381487
aF6.466300233140817
aF6.484635235635252
aF6.500538637835167
aF6.502790045915623
aF6.512042462316651
aF6.515749190558129
aF6.48280149429011
aF6.470644693038427
aF6.468940191192418
aF6.456455634530173
aF6.430364431302384
aF6.429396845353648
aF6.435188367333237
aF6.439829489531367
aF6.462405237175058
aF6.4577111274760055
aF6.458808392262012
aF6.459591416340857
aF6.473736363455911
aF6.485245736264714
aF6.4805045788020506
aF6.48280149429011
aF6.471727865291332
aF6.479584333338335
aF6.474662003756499
aF6.483871585349955
aF6.482342533064276
aF6.468164456144597
aF6.447305862541213
aF6.4496802206016755
aF6.442062345323486
aF6.449047609478253
aF6.447622769531664
aF6.426812029698016
aF6.4224349456245085
aF6.443017759408901
aF6.442699389460335
aF6.444766984630307
aF6.439190613930656
aF6.436150368369428
aF6.434707019550176
aF6.436150368369428
aF6.4253551293998505
aF6.429880755355832
aF6.440787038279923
aF6.441424895102697
aF6.438391445023741
aF6.441903020858877
aF6.460999316456092
aF6.461311914145415
aF6.454726753942363
aF6.427943708745316
aF6.414114479970247
aF6.407704728384105
aF6.395094639270416
aF6.3846883687937925
aF6.388225214586
aF6.36492285908106
aF6.368187186350492
aF6.377916716034216
aF6.376216613618605
aF6.373149126550743
aF6.372295374257785
aF6.383844415667491
aF6.379613933006459
aF6.3826616834184415
aF6.385531610263777
aF6.401917196727186
aF6.407374913077685
aF6.40258032672496
aF6.397762641520038
aF6.40258032672496
aF6.392921633818608
aF6.363545211196563
aF6.352629396319567
aF6.352106611607826
aF6.355760378178076
aF6.3638898011379466
aF6.3638898011379466
aF6.360265670844555
aF6.361647841071506
aF6.379613933006459
aF6.385025750713322
aF6.391917113392602
aF6.392586905782009
aF6.388057076712548
aF6.3974295302577975
aF6.400257445308821
aF6.3835066348840055
aF6.384350873009287
aF6.374002150572442
aF6.383168739966109
aF6.393925146195848
aF6.3959291548825625
aF6.396095974467569
aF6.413786772282569
aF6.408858226081421
aF6.427943708745316
aF6.438551329906966
aF6.443972261549457
aF6.441743671005939
aF6.4446080905328875
aF6.4434951243634675
aF6.440148774336123
aF6.454097328272487
aF6.455355783684759
aF6.442699389460335
aF6.449363965064568
aF6.443972261549457
aF6.437111444848978
aF6.442221644407853
aF6.433100851520974
aF6.432940092739179
aF6.440148774336123
aF6.443813241114997
aF6.452364362104247
aF6.448731153779409
aF6.460999316456092
aF6.4622491213367885
aF6.463809184055691
aF6.463809184055691
aF6.467853993552845
aF6.474199290707447
aF6.476202836110654
aF6.4721917230499395
aF6.4734276261888715
aF6.47435355218095
aF6.461936816524757
aF6.451575656329472
aF6.4577111274760055
aF6.439030831234781
aF6.446513155404975
aF6.446830313669605
aF6.445561076627883
aF6.4434951243634675
aF6.443336028030302
aF6.4224349456245085
aF6.42648845745769
aF6.433904258007508
aF6.436470829836679
aF6.433100851520974
aF6.431492099565257
aF6.436791188641277
aF6.443972261549457
aF6.443972261549457
aF6.454097328272487
aF6.455512979315044
aF6.457240502320248
aF6.462405237175058
aF6.468629969381338
aF6.446037229323174
aF6.439030831234781
aF6.411654050614528
aF6.413458957167357
aF6.422109953746444
aF6.418364935936212
aF6.422597401964724
aF6.441106017548975
aF6.441584295756578
aF6.442062345323486
aF6.441903020858877
aF6.450944243522384
aF6.4548840484767025
aF6.455041318273362
aF6.454726753942363
aF6.460530236625741
aF6.4731187935736925
aF6.474662003756499
aF6.483260244967167
aF6.4734276261888715
aF6.472964341492144
aF6.472964341492144
aF6.4721917230499395
aF6.483107351457199
aF6.49329987903584
aF6.490875268058674
aF6.474199290707447
aF6.47943087672789
aF6.489052944091952
aF6.4863132163508315
aF6.494207594680617
aF6.504288173536645
aF6.5039887275095545
aF6.502640109638261
aF6.5051859739859985
aF6.509514015963292
aF6.507426954979125
aF6.506082969112669
aF6.506082969112669
aF6.511745329644728
aF6.5096629252033855
aF6.524883019526607
aF6.522827822091521
aF6.533352696325791
aF6.526641261737804
aF6.533352696325791
aF6.533934176208434
aF6.51796665025898
aF6.517671272912275
aF6.497830240151879
aF6.468164456144597
aF6.468474822379242
aF6.472964341492144
aF6.478509642208569
aF6.48494053253886
aF6.488292661230119
aF6.477126197210423
aF6.482495543545793
aF6.47943087672789
aF6.4698702796178615
aF6.476510717886486
aF6.48432984549698
aF6.484635235635252
aF6.48600833829969
aF6.49299712396238
aF6.4990348781533
aF6.501439809419134
aF6.498432740546668
aF6.48859684374197
aF6.499185355920494
aF6.504737174517024
aF6.505335529059933
aF6.500538637835167
aF6.503239719909561
aF6.500538637835167
aF6.500839118606658
aF6.502790045915623
aF6.514564531749361
aF6.51471269087253
aF6.51352680279996
aF6.51352680279996
aF6.518261940383671
aF6.523415452488921
aF6.522239846181593
aF6.520915634997138
aF6.529272842203859
aF6.531897515626631
aF6.537705576094927
aF6.537415972849347
aF6.537271139769218
aF6.538718527487524
aF6.541318557841451
aF6.541174288923939
aF6.541318557841451
aF6.538718527487524
aF6.53116913042435
aF6.531460548173753
aF6.5237091382472725
aF6.523855948788533
aF6.523121680453905
aF6.520179203709713
aF6.5141199226275495
aF6.524736359703803
aF6.536401700502741
aF6.53451531816871
aF6.537415972849347
aF6.534370064337384
aF6.53116913042435
aF6.522680860521707
aF6.510853401534461
aF6.509960677178192
aF6.5141199226275495
aF6.511893907016668
aF6.511893907016668
aF6.498432740546668
aF6.496020557860377
aF6.497528853772263
aF6.496925808374822
aF6.499486243541238
aF6.498583308942647
aF6.495718625490934
aF6.486922693742851
aF6.485550846869675
aF6.4863132163508315
aF6.495567625113146
aF6.48981264936286
aF6.494207594680617
aF6.509067155152996
aF6.509067155152996
aF6.512487995850418
aF6.511893907016668
aF6.509811812272819
aF6.511002111475994
aF6.493905114339532
aF6.476664623235
aF6.48402436206708
aF6.483565961875693
aF6.479737766403461
aF6.482342533064276
aF6.485245736264714
aF6.486922693742851
aF6.490419998303485
aF6.494509983555011
aF6.494056365946869
aF6.486465620527001
aF6.48600833829969
aF6.483260244967167
aF6.482648530618684
aF6.4792773965649
aF6.468319651302819
aF6.4760488596687455
aF6.480197924399157
aF6.4783560205783415
aF6.4895088365092395
aF6.488748900307305
aF6.48402436206708
aF6.486465620527001
aF6.48478789573783
aF6.486465620527001
aF6.495718625490934
aF6.49888437773914
aF6.500688889506999
aF6.505485061770492
aF6.504288173536645
aF6.502790045915623
aF6.504886796721238
aF6.502340169624015
aF6.512784907966614
aF6.518261940383671
aF6.53058604002882
aF6.528250272543504
aF6.528834726096085
aF6.5321887212198355
aF6.524149505226866
aF6.516488890273786
aF6.502190165873639
aF6.494661143709481
aF6.500388363584376
aF6.504737174517024
aF6.503089851044537
aF6.502040139618764
aF6.51471269087253
aF6.514860828047825
aF6.5141199226275495
aF6.510555915291006
aF6.516636764580894
aF6.513230110912307
aF6.515453157400254
aF6.510555915291006
aF6.509811812272819
aF6.508471029949054
aF6.50757617530321
aF6.5036891917876805
aF6.496925808374822
aF6.487531799898427
aF6.492239835020471
aF6.491481972157369
aF6.494207594680617
aF6.49888437773914
aF6.504886796721238
aF6.5044378629314314
aF6.504288173536645
aF6.5039887275095545
aF6.504587529922656
aF6.503239719909561
aF6.51352680279996
aF6.511893907016668
aF6.512042462316651
aF6.526201990920286
aF6.525762527059115
aF6.546498425538293
aF6.56018164928975
aF6.552650530212922
aF6.56018164928975
aF6.5703225812658
aF6.57060281105606
aF6.5679374521098275
aF6.574657342999874
aF6.56187896228563
aF6.57813948315741
aF6.588376119787101
aF6.586723226848802
aF6.6039438246004725
aF6.6052979209482015
aF6.594413459749778
aF6.601094239932554
aF6.597009266931805
aF6.601501820944921
aF6.6006864927301665
aF6.613786821887648
aF6.612578524768096
aF6.616600517051383
aF6.615663498041656
aF6.6009583426706735
aF6.603808314064321
aF6.611637727709255
aF6.609484004976088
aF6.60934924316738
aF6.606785312203421
aF6.6140551342047935
aF6.624198021107306
aF6.622337308183424
aF6.619539730924212
aF6.632791978938131
aF6.641834698311869
aF6.638960382248839
aF6.647169432192057
aF6.646130740849646
aF6.6436595163364975
aF6.643529282566697
aF6.633844610614274
aF6.638567789166521
aF6.645740953278934
aF6.666193142143909
aF6.671273163228746
aF6.677209397901166
aF6.672918629076881
aF6.682484466651753
aF6.6826097249972545
aF6.694066886438683
aF6.6939430550968115
aF6.698021414577845
aF6.7148984202727995
aF6.739573285741901
aF6.739218277158799
aF6.731376031643812
aF6.722268718845026
aF6.721907512411624
aF6.695304357206671
aF6.703801422061068
aF6.7067400797409285
aF6.680729200403702
aF6.672792150862585
aF6.676579555970663
aF6.691339048417354
aF6.693075806080056
aF6.690718046099688
aF6.715383386334681
aF6.718046503754165
aF6.72898740038748
aF6.719978871505218
aF6.703188113240863
aF6.694066886438683
aF6.682985405923343
aF6.6670840107997105
aF6.677461223639086
aF6.690718046099688
aF6.692455881690976
aF6.690345259515688
aF6.690345259515688
aF6.679473549811804
aF6.698637899401019
aF6.700608100752526
aF6.70490443093569
aF6.6993771798684
aF6.688479239194416
aF6.6787194019630896
aF6.682734967655067
aF6.691835572757247
aF6.6898479944631735
aF6.687981045137532
aF6.69900760795166
aF6.698637899401019
aF6.702819947316597
aF6.699500340161678
aF6.716231511423383
aF6.722509450670936
aF6.732806476517595
aF6.725393721388161
aF6.75786218940752
aF6.766767585681159
aF6.7661917146603505
aF6.759255270663693
aF6.761919930758593
aF6.78083058540847
aF6.792119935383212
aF6.799167338565238
aF6.799613120362434
aF6.800392760653637
aF6.817611729129171
aF6.817502290004575
aF6.80161668292047
aF6.790547078076596
aF6.788859124038281
aF6.78332520060396
aF6.782872096835447
aF6.79469855668984
aF6.796823718274855
aF6.817064413697633
aF6.8278458957538355
aF6.818705462148626
aF6.834108738813838
aF6.837869151517971
aF6.84182912886597
aF6.832816192317643
aF6.842042735616755
aF6.811024090022365
aF6.815968883351428
aF6.809701338506749
aF6.809591030194905
aF6.814762412132972
aF6.824591037721368
aF6.826653677545096
aF6.831737792558221
aF6.829036694270732
aF6.813224795135904
aF6.817173900750898
aF6.818814769685489
aF6.8058332892567535
aF6.810362932973487
aF6.834969509256484
aF6.851502337431339
aF6.8598247452245875
aF6.8557248708877525
aF6.852876617472147
aF6.8581447784288025
aF6.85761920948834
aF6.871506146307016
aF6.879355804460439
aF6.883155162113904
aF6.884384292658897
aF6.8966943316227125
aF6.895379007914082
aF6.899723107284872
aF6.8992189479598505
aF6.895379007914082
aF6.88407715162756
aF6.887756632475448
aF6.892235467324101
aF6.891320972518712
aF6.907055033867744
aF6.914134885946176
aF6.922348281285037
aF6.939253946041508
aF6.9191896566078
aF6.904449821973411
aF6.844815479208263
aF6.824156255105823
aF6.819470364114565
aF6.831090194046651
aF6.846411648741085
aF6.861292404571796
aF6.8611876431658025
aF6.856882948608381
aF6.836474076977173
aF6.845986252584505
aF6.824917000673133
aF6.808818531122114
aF6.811574720508168
aF6.818158745170381
aF6.82078026496773
aF6.834216375647267
aF6.830226076472899
aF6.840760410157858
aF6.8450284490738325
aF6.836581459527612
aF6.829793737512425
aF6.836366682894484
aF6.841294912281867
aF6.854670907889681
aF6.858985114612707
aF6.852453963197048
aF6.824591037721368
aF6.833139485601347
aF6.829901839777273
aF6.826978968954849
aF6.809149675228015
aF6.79794041297493
aF6.791895392887602
aF6.797382221500767
aF6.793914462558377
aF6.7779882209230715
aF6.781511552407887
aF6.755419617678439
aF6.759023225181737
aF6.773194785586442
aF6.782532134228059
aF6.78083058540847
aF6.785700632974831
aF6.7903221820900415
aF6.789422092020272
aF6.790434636405594
aF6.785700632974831
aF6.7690677592082436
aF6.788070436036158
aF6.806829360392176
aF6.808487277323468
aF6.817064413697633
aF6.82719577112372
aF6.839690548068008
aF6.840546529288687
aF6.833247226807075
aF6.830766237454001
aF6.833893430383681
aF6.835722076082305
aF6.81278504139091
aF6.805390272304109
aF6.7896471905018085
aF6.789196942858002
aF6.79883287175795
aF6.798386741926772
aF6.7868298110532566
aF6.779126136384956
aF6.803727208558089
aF6.807271740403815
aF6.811904953325303
aF6.796264902948774
aF6.782532134228059
aF6.782078670894135
aF6.773080375655535
aF6.771018755408666
aF6.796041289352136
aF6.78897174299217
aF6.7971588576401105
aF6.810473156175584
aF6.810583367229864
aF6.807824440357088
aF6.810252697620898
aF6.795146334599483
aF6.791446156581754
aF6.8218705398249675
aF6.835614601204455
aF6.834431614563294
aF6.840225622188537
aF6.851819646651834
aF6.851502337431339
aF6.851925394021467
aF6.841615476477592
aF6.83915518748988
aF6.836903538010186
aF6.838083605732818
aF6.833570380792761
aF6.853615832881489
aF6.874301902722918
aF6.873370852120306
aF6.882232321751051
aF6.895176496775277
aF6.888368565181947
aF6.885509670034818
aF6.871195023670334
aF6.865578200082951
aF6.875335387726026
aF6.883257647381737
aF6.855198028243461
aF6.835936991191665
aF6.840225622188537
aF6.835184586147301
aF6.837869151517971
aF6.838298013966916
aF6.823068470814943
aF6.829361211554125
aF6.8206711720750235
aF6.817392838901746
aF6.819033348921333
aF6.795817625741273
aF6.786604077417986
aF6.785135565434226
aF6.771821001741304
aF6.759603237958279
aF6.763076267612693
aF6.716473700816671
aF6.720702547812281
aF6.728867818922465
aF6.6834860943804175
aF6.677838843380498
aF6.68910163294078
aF6.706495521167931
aF6.706495521167931
aF6.731018100482083
aF6.730660041159764
aF6.715383386334681
aF6.7158681173184815
aF6.721184707898767
aF6.726712903686563
aF6.73744134131246
aF6.731256735490971
aF6.728748223156012
aF6.727431724850855
aF6.706250902771409
aF6.69369534640097
aF6.702328848473085
aF6.707229017533336
aF6.7018375083329955
aF6.706128571130177
aF6.689972333910023
aF6.663132695990803
aF6.629627419335168
aF6.641312709522775
aF6.6596784611227156
aF6.668736378509637
aF6.671273163228746
aF6.767573248382274
aF6.818596142662319
aF6.775594375379798
aF6.7823054282647215
aF6.811244378601294
aF6.8124550991278126
aF6.803172238789697
aF6.7963766909987475
aF6.813004942436327
aF6.778557340510455
aF6.829144878400226
aF6.8111342403777115
aF6.793914462558377
aF6.774452431667717
aF6.740282925038388
aF6.725633702190849
aF6.774795151725907
aF6.792119935383212
aF6.825242857407673
aF6.828387343598564
aF6.834969509256484
aF6.759487262313034
aF6.770560039804292
aF6.749111185542539
aF6.750633523209925
aF6.743234346813689
aF6.7025744280421
aF6.671399833695697
aF6.697034247666484
aF6.687981045137532
aF6.652992053287465
aF6.59959835334097
aF6.615395616979245
aF6.606244698593822
aF6.615395616979245
aF6.627644472026674
aF6.6510549441390845
aF6.654925417297567
aF6.607460668479512
aF6.591810896812385
aF6.605027248325085
aF6.644570678130743
aF6.6400065442378065
aF6.633581556555148
aF6.612578524768096
aF6.619005970569933
aF6.6419651529464545
aF6.620073206530356
aF6.6047565024184625
aF6.605568520327474
aF6.62459629525794
aF6.612309815912522
aF6.618471925163382
aF6.61338421837956
aF6.634633357861686
aF6.622603336383981
aF6.686360198202044
aF6.692207804289556
aF6.720340775122173
aF6.720099520597481
aF6.712834686611667
aF6.705761486390662
aF6.709548212957959
aF6.7074733968111895
aF6.704536896475197
aF6.666575040181776
aF6.661854740545311
aF6.665556321132768
aF6.6492435838301365
aF6.632265247295718
aF6.660959199002699
aF6.659037476548497
aF6.7003620377591595
aF6.726353299247566
aF6.7191339200396545
aF6.71865076989135
aF6.7350671711564205
aF6.756118104319177
aF6.780717045811413
aF6.777304849598072
aF6.748876773914649
aF6.732925587946478
aF6.7459419828195335
aF6.742054823204418
aF6.743470084674281
aF6.77044532801753
aF6.780603493321654
aF6.790884327250722
aF6.781171126872684
aF6.777646593635117
aF6.788408521349571
aF6.787281125514262
aF6.785135565434226
aF6.784457062637643
aF6.768263300163538
aF6.764346695686781
aF6.76122548628624
aF6.76596127336425
aF6.752620782032146
aF6.749579844016261
aF6.7208231096305
aF6.720099520597481
aF6.709304340258298
aF6.736729681930034
aF6.740401149309969
aF6.736373662226517
aF6.763538428221728
aF6.761109698640652
aF6.759603237958279
aF6.804836224974296
aF6.8022836460399025
aF6.819361128219541
aF6.810252697620898
aF6.805611805313434
aF6.812565091978388
aF6.834324000896254
aF6.830334132013552
aF6.830009930357284
aF6.815749633186113
aF6.8121250479668864
aF6.827954208778582
aF6.8239387928890265
aF6.815201297371529
aF6.810473156175584
aF6.82143457251561
aF6.852453963197048
aF6.8581447784288025
aF6.8494903708501615
aF6.848111426054622
aF6.850020228330899
aF6.880692359432448
aF6.8942646887996375
aF6.893453494271277
aF6.912842318030695
aF6.905352394365827
aF6.905051627407822
aF6.902139540196502
aF6.884589000950298
aF6.862967096192003
aF6.868806528843562
aF6.855092626398831
aF6.864638987908509
aF6.837547383938641
aF6.826762119772606
aF6.84182912886597
aF6.850549805211358
aF6.843323418822748
aF6.847580555946067
aF6.826219790999619
aF6.816516798547866
aF6.834108738813838
aF6.842896706633641
aF6.831090194046651
aF6.834324000896254
aF6.828062510072889
aF6.853299093186078
aF6.867870345283222
aF6.8736812986483855
aF6.8618160470406915
aF6.863594383196367
aF6.849914279292287
aF6.844921969810568
aF6.8509732648831525
aF6.841188034710024
aF6.829361211554125
aF6.836259277277067
aF6.828387343598564
aF6.836796190041643
aF6.833893430383681
aF6.811794887836226
aF6.798498293045188
aF6.795258247754991
aF6.785135565434226
aF6.7902097151270935
aF6.786716950605081
aF6.785813608176895
aF6.785813608176895
aF6.801394262990727
aF6.800058703526763
aF6.8008379966360595
aF6.794810519966003
aF6.775594375379798
aF6.768148324595719
aF6.788746492399935
aF6.796264902948774
aF6.794250578185316
aF6.811244378601294
aF6.81695491465564
aF6.82143457251561
aF6.822088452225045
aF6.8082663804813945
aF6.805168690207036
aF6.8019502200851605
aF6.790434636405594
aF6.788183143841292
aF6.808928924675242
aF6.819033348921333
aF6.815420667779341
aF6.829685623560215
aF6.823286122355687
aF6.8206711720750235
aF6.821325550983749
aF6.83227713780618
aF6.835507114774513
aF6.833247226807075
aF6.83915518748988
aF6.837118199382696
aF6.838619540147275
aF6.833893430383681
aF6.845560675389019
aF6.862444056272134
aF6.867558089230724
aF6.864430154243763
aF6.866308089067964
aF6.863907879201861
aF6.8658910748834385
aF6.871195023670334
aF6.887348469204475
aF6.887042237384596
aF6.89588510641165
aF6.893352048671393
aF6.8969976223291765
aF6.8898967606808235
aF6.889183893396702
aF6.865473886725531
aF6.866203851823902
aF6.8680784618292385
aF6.871713507634872
aF6.868182503862314
aF6.864743388388846
aF6.845560675389019
aF6.844708977264502
aF6.844389403360317
aF6.848854171061976
aF6.84683686401272
aF6.844176297339265
aF6.840225622188537
aF6.840225622188537
aF6.831521972982548
aF6.8465179695109475
aF6.8456670866687155
aF6.85393247228463
aF6.84534781885352
aF6.848429812897322
aF6.850655686941565
aF6.851925394021467
aF6.84683686401272
aF6.83915518748988
aF6.837332814685591
aF6.836259277277067
aF6.836581459527612
aF6.829577497918113
aF6.822197390620491
aF6.818924065275521
aF6.817939974659773
aF6.82730415458451
aF6.831521972982548
aF6.847368128967042
aF6.8450284490738325
aF6.845241373592895
aF6.844602463976869
aF6.861292404571796
aF6.8599296494995325
aF6.860663671448287
aF6.863803391452954
aF6.860244296311086
aF6.858565034791365
aF6.865056524449022
aF6.862967096192003
aF6.846305316665914
aF6.842256296749442
aF6.861920742638338
aF6.863280788880307
aF6.86891049515857
aF6.876780474682707
aF6.8748187787358725
aF6.878429449600309
aF6.871506146307016
aF6.861397155003988
aF6.863176235584169
aF6.8557248708877525
aF6.85845998725726
aF6.866933284461882
aF6.865786794159636
aF6.8540379964761495
aF6.8540379964761495
aF6.8467305771443625
aF6.850655686941565
aF6.8516081183591355
aF6.863907879201861
aF6.8611876431658025
aF6.863280788880307
aF6.860139425040474
aF6.8560408432954585
aF6.856882948608381
aF6.8658910748834385
aF6.866308089067964
aF6.86714159609684
aF6.863698892785217
aF6.887450525641773
aF6.904148783388026
aF6.903245123504251
aF6.902240098294027
aF6.903747257584598
aF6.9149294827301375
aF6.910651082094162
aF6.905151893112022
aF6.918596302160012
aF6.91592184164853
aF6.9161201953137645
aF6.916814123470483
aF6.927557906278317
aF6.931178793925725
aF6.924809033547964
aF6.913339657276038
aF6.914035516939287
aF6.926086235666861
aF6.925300458197886
aF6.925595197110468
aF6.906454433249089
aF6.901938393660572
aF6.90384765415112
aF6.903144666424454
aF6.917111373906162
aF6.916417652060789
aF6.914432933735378
aF6.911647693697481
aF6.924809033547964
aF6.949760573127167
aF6.954448006974119
aF6.96659006470303
aF6.958068092855726
aF6.959018572919678
aF6.964513612800746
aF6.973917481235806
aF6.97569426199033
aF6.970917853939778
aF6.962527514829117
aF6.961390828148047
aF6.970917853939778
aF6.972793675161359
aF6.969978622162269
aF6.967438281143311
aF6.972137537911405
aF6.962432840272833
aF6.965174769849623
aF6.949952327681926
aF6.948321240728799
aF6.953779717293417
aF6.955020471449251
aF6.949472872334005
aF6.968097507988299
aF6.99117688712121
aF7.000516759063448
aF6.997138840116823
aF7.002610809994816
aF7.001973954221119
aF7.01247558975254
aF7.010763029056366
aF7.0192966537150445
aF7.023224528788251
aF7.020011961327804
aF7.025804945755952
aF7.041324170903552
aF7.041849013462836
aF7.049081215072572
aF7.04359650189355
aF7.048038824429193
aF7.054536010190332
aF7.067490337103296
aF7.065527962854679
aF7.083639493812086
aF7.0857340863419545
aF7.0825485693553
aF7.074540096626962
aF7.073947453846208
aF7.090743280319252
aF7.106196217655975
aF7.111593679238341
aF7.099366882683184
aF7.0558303970475
aF7.059617628291383
aF7.063219381606209
aF7.044207402117637
aF7.035532648923963
aF7.040186066162627
aF7.018401799069201
aF7.027669375647474
aF7.0287332055350396
aF7.038958964597482
aF7.039923242559555
aF7.017595744661669
aF7.02054810645726
aF7.019117746835597
aF7.000425613823445
aF6.998874872349621
aF7.008053000297501
aF7.011574607621134
aF7.015173675749407
aF7.010041072522887
aF6.999422467507961
aF7.008957159491104
aF7.003065458786462
aF7.0240260606475236
aF7.027846759239957
aF7.038695818242733
aF7.037115484287844
aF7.0373790467756425
aF7.053239945724118
aF7.05695084534399
aF7.054190557211683
aF7.03816931770407
aF7.04377108289958
aF7.04333457322396
aF7.032535995879443
aF7.035884606692665
aF7.038608087400899
aF7.039835619339345
aF7.018580834071022
aF7.0015188087943
aF7.000972360693271
aF7.006332842343131
aF7.005698353312101
aF7.004881989712859
aF6.998966159035521
aF6.993106946081641
aF6.987859523223799
aF7.009589584863405
aF7.018938807942752
aF7.024737994467752
aF7.012565643334482
aF6.97373026790567
aF6.97522699409715
aF6.978493293487479
aF6.987213200316853
aF6.986289156636244
aF7.000607895996754
aF6.996955924440439
aF6.998874872349621
aF7.00460972034602
aF7.021619535131184
aF7.0269595264606135
aF7.024204091625384
aF7.026249173029926
aF7.02651561470298
aF7.0304152917180245
aF7.021351785564677
aF7.010041072522887
aF7.010853236985704
aF7.019654371479546
aF7.020726757641298
aF7.02384799796899
aF7.036324379776845
aF7.042548375323669
aF7.039485049660032
aF7.038608087400899
aF7.036060539135061
aF7.036412311190399
aF7.024471078678098
aF7.027758071376834
aF7.013105794589963
aF7.020011961327804
aF7.0068763698499446
aF7.012025200157934
aF7.028290080610875
aF7.032271153679704
aF7.028910400538604
aF7.026781985403778
aF7.007691107594736
aF7.010582588781607
aF7.0096798987040625
aF7.007329083878229
aF6.998783577329701
aF7.010672812988823
aF7.014634640609233
aF7.01580218306527
aF7.01472449997938
aF7.018938807942752
aF7.027846759239957
aF7.026693203053651
aF7.026249173029926
aF7.032447722939455
aF7.037203346169024
aF7.049688774870804
aF7.050382677231893
aF7.059187982742347
aF7.063989501012773
aF7.062191632286556
aF7.0530670101421915
aF7.05712311063296
aF7.05695084534399
aF7.0554853910064725
aF7.036500234872699
aF7.036500234872699
aF7.04342189040367
aF7.047256317759695
aF7.04656024185932
aF7.052807550681276
aF7.05444965813294
aF7.0558303970475
aF7.066808208836737
aF7.067831226828772
aF7.065357139485627
aF7.074116816197362
aF7.073184968105874
aF7.079437100671747
aF7.083052220839127
aF7.070978960084151
aF7.098375638590786
aF7.100604557662746
aF7.0945667410489435
aF7.094151854929231
aF7.117854116775538
aF7.129137279676686
aF7.124719779219631
aF7.129938369201223
aF7.118907217443969
aF7.124397743953987
aF7.113386378545049
aF7.112571913603462
aF7.08799132928507
aF7.079100145062459
aF7.075047796756331
aF7.086988739176858
aF7.093155425385689
aF7.103239822302372
aF7.104883343093065
aF7.102334733171594
aF7.101840702696333
aF7.104472716059824
aF7.113386378545049
aF7.112001393191883
aF7.1098794630722715
aF7.105950184932382
aF7.1067700587177525
aF7.126087273299125
aF7.131858369791047
aF7.123108564821284
aF7.117448782571943
aF7.114769448366463
aF7.11590701247711
aF7.1177730630774185
aF7.119878327012882
aF7.120767683096888
aF7.131138801500954
aF7.140215296933696
aF7.1390257175079554
aF7.142590218885931
aF7.124397743953987
aF7.127533172820045
aF7.128976984733648
aF7.137119442109403
aF7.135129866824163
aF7.140532279264585
aF7.126489121807647
aF7.12817512437475
aF7.125524413958892
aF7.100769465314835
aF7.100687014888107
aF7.101593595903758
aF7.100769465314835
aF7.092906162786251
aF7.096224566362326
aF7.100934345776873
aF7.10052209363763
aF7.099862136510889
aF7.104554854956745
aF7.104390570415551
aF7.10365095580321
aF7.0986235417445585
aF7.085315518674381
aF7.0854829667658645
aF7.08447785737561
aF7.08799132928507
aF7.0896600822797495
aF7.092906162786251
aF7.082044664078827
aF7.084980538351343
aF7.078931624671093
aF7.060905458475812
aF7.063818414613725
aF7.075724329551691
aF7.074963197966044
aF7.081540504753805
aF7.081876639210752
aF7.091991667980864
aF7.089409946788388
aF7.0986235417445585
aF7.0948155901232655
aF7.097879647839113
aF7.095644640079555
aF7.096141740338342
aF7.102417047860697
aF7.104226258880511
aF7.102417047860697
aF7.112082916038706
aF7.112979228993396
aF7.116394144093465
aF7.120363528380964
aF7.116637620944077
aF7.1135491919612335
aF7.1156633576535695
aF7.118097238459137
aF7.123592201780574
aF7.125926488669789
aF7.124317218930792
aF7.121494750221053
aF7.121171674537765
aF7.13041871505947
aF7.134253198108921
aF7.13289683295902
aF7.133615137790575
aF7.130338673437784
aF7.131458673554861
aF7.138311290011801
aF7.140294551936709
aF7.137596351744068
aF7.130978827096517
aF7.127934440832331
aF7.130658801491738
aF7.150073809682388
aF7.147795277956077
aF7.152425460840627
aF7.1564106194650705
aF7.153442794731241
aF7.157034303900972
aF7.162319974971091
aF7.1666520000021645
aF7.166343191229542
aF7.169580936888691
aF7.1681175407789555
aF7.169811803794945
aF7.177553382335358
aF7.179993709940065
aF7.181667987347919
aF7.185083939354426
aF7.185159717022784
aF7.184932366788771
aF7.201245451716894
aF7.207267103187495
aF7.21810352193283
aF7.207118856207756
aF7.21133530658669
aF7.2114829298523855
aF7.210005715609315
aF7.224971881536236
aF7.23439360654433
aF7.233311003861999
aF7.222639008859063
aF7.225918058687505
aF7.223003879151723
aF7.206748142579785
aF7.206525648419339
aF7.191579921106613
aF7.197061032550016
aF7.206822296300482
aF7.202735653915029
aF7.202735653915029
aF7.2044466455915055
aF7.213989196828445
aF7.218030200086552
aF7.21890970761906
aF7.214577994961301
aF7.218030200086552
aF7.239573846922003
aF7.242583307490861
aF7.2416527752308815
aF7.251415902843184
aF7.260803654865171
aF7.250919360892922
aF7.256438372991317
aF7.249072900599828
aF7.2229309157428405
aF7.2271540179854865
aF7.218176838403408
aF7.203331113553019
aF7.21648919813053
aF7.217076526537399
aF7.214725140341202
aF7.220666405479694
aF7.2302734662693755
aF7.230418320329163
aF7.226063544975679
aF7.2254814727822945
aF7.217883540263748
aF7.221689722577984
aF7.236627278258781
aF7.241581159948149
aF7.242654851043029
aF7.253753428256754
aF7.254672773464889
aF7.262979170653555
aF7.265569573614296
aF7.246296801724727
aF7.239645606098239
aF7.2382813004258075
aF7.232877634407763
aF7.243155512642015
aF7.24964140544743
aF7.2417959904119344
aF7.234105027074757
aF7.2284610178810995
aF7.230997526832469
aF7.235186770951201
aF7.238209443277787
aF7.237274830175497
aF7.235763222905484
aF7.233599812528267
aF7.227444610068898
aF7.234032869193281
aF7.248717420876202
aF7.253824177133645
aF7.254460691883379
aF7.259116128097101
aF7.259045752644029
aF7.260452321551646
aF7.256226665570181
aF7.233022111761189
aF7.229403900997191
aF7.228606134700393
aF7.224607728733698
aF7.226572580364629
aF7.234177179749849
aF7.235907283987631
aF7.238855971801439
aF7.228170721050553
aF7.21847005054449
aF7.219129463690706
aF7.226863341433771
aF7.228896305177583
aF7.223003879151723
aF7.207711712309306
aF7.205709412704522
aF7.20993179758437
aF7.199005976310943
aF7.205115367985189
aF7.206080511532398
aF7.204892510204673
aF7.2046696027474955
aF7.204297979866115
aF7.202661196523238
aF7.2023633115046515
aF7.21177811102197
aF7.213179032910075
aF7.206080511532398
aF7.209710010720636
aF7.220812657765146
aF7.219861635344442
aF7.21920270498418
aF7.220812657765146
aF7.213547370606236
aF7.2194223966843785
aF7.226572580364629
aF7.230635562083883
aF7.233599812528267
aF7.238065713489541
aF7.238424999233355
aF7.250493557181996
aF7.251415902843184
aF7.255732507217673
aF7.256791119123586
aF7.252195685252527
aF7.254107122597795
aF7.255661893229013
aF7.2682927537351665
aF7.27219003753231
aF7.2694774641423825
aF7.266478124538169
aF7.270591205034342
aF7.2751030649771735
aF7.269616749608169
aF7.269407814133649
aF7.266128779556451
aF7.2610143956197
aF7.266058895912689
aF7.265429723253953
aF7.262698724742721
aF7.248006082106699
aF7.24964140544743
aF7.260522598089852
aF7.263049269843938
aF7.268362481448475
aF7.266547978891871
aF7.272745554524583
aF7.277178615743036
aF7.270660772671506
aF7.264590210122234
aF7.2638900770683605
aF7.2603820400743
aF7.26494009291507
aF7.271564711821469
aF7.269407814133649
aF7.265919113972289
aF7.271217139609844
aF7.283860231783815
aF7.287355420895247
aF7.289132591561211
aF7.296074228255331
aF7.296887732469404
aF7.2970232521877305
aF7.290770258252709
aF7.287355420895247
aF7.298377440220527
aF7.3049193620509145
aF7.304583193694638
aF7.3114187651436735
aF7.31228661793021
aF7.316813922600431
aF7.319003631846029
aF7.321386949756695
aF7.322114054260421
aF7.325017196969813
aF7.319401246165382
aF7.332761542297137
aF7.338173128445878
aF7.357875027630733
aF7.362454896968
aF7.361629526297989
aF7.3463972317848585
aF7.340835554123275
aF7.327451969337026
aF7.311619105723327
aF7.310617001220186
aF7.322246198297614
aF7.325609984736224
aF7.330405211844402
aF7.318207928601341
aF7.323830566202317
aF7.309145429048272
aF7.315684016528275
aF7.311351976030274
aF7.312753611500858
aF7.312686911484158
aF7.323170717943469
aF7.3248195229336535
aF7.324687718531195
aF7.331125790959136
aF7.336220511319363
aF7.333349758385467
aF7.338173128445878
aF7.337847956915032
aF7.33875817087814
aF7.33966755710515
aF7.345752112092786
aF7.342066961647881
aF7.342649731114305
aF7.341743054023503
aF7.347943823148687
aF7.345816642793289
aF7.342584995720205
aF7.3453002805537135
aF7.342520256135163
aF7.333480426097662
aF7.3345251535841305
aF7.330929320871075
aF7.334851407216596
aF7.3343293503005365
aF7.340446373343893
aF7.339732481630412
aF7.3427791893318455
aF7.346010209913293
aF7.350773043142886
aF7.344848244770613
aF7.329880827983409
aF7.314619408004009
aF7.316481729792673
aF7.316681058719282
aF7.32132082312417
aF7.322378324875067
aF7.314219887423385
aF7.306128633276545
aF7.310683839438305
aF7.323764600965973
aF7.335242771124794
aF7.335568790754063
aF7.342649731114305
aF7.342066961647881
aF7.350066488210964
aF7.360739903058278
aF7.370860166536716
aF7.373939122125007
aF7.373374309910049
aF7.376570702591063
aF7.381875423739712
aF7.383678850738863
aF7.378820844174251
aF7.380193442343332
aF7.381875423739712
aF7.391969951321836
aF7.390921894754154
aF7.390243154716372
aF7.394738928262557
aF7.39005796381489
aF7.39762280815665
aF7.394062774934402
aF7.3967033242288105
aF7.4150546929715695
aF7.421835600468623
aF7.427322582684883
aF7.420219559416636
aF7.433370988220763
aF7.451648106452324
aF7.48352559138851
aF7.5031242366233775
aF7.500031849157108
aF7.477208237195751
aF7.465140008528082
aF7.478508811328016
aF7.488461380196333
aF7.492370252718621
aF7.51103245511304
aF7.537216907855949
aF7.536523925605876
aF7.555591236832079
aF7.554649075024621
aF7.5247770691525915
aF7.481386673540519
aF7.507690077819904
aF7.515834647152018
aF7.50928046999477
aF7.517194710468598
aF7.516705300741327
aF7.512071245835466
aF7.541311678128444
aF7.544067522789543
aF7.551081764558126
aF7.56002838033211
aF7.539027055823995
aF7.533640232482915
aF7.541470875772656
aF7.52929904068239
aF7.5275787951232385
aF7.519312722502128
aF7.519638172711119
aF7.509828295142687
aF7.50648188392259
aF7.510321081310844
aF7.50999258418224
aF7.501579238247297
aF7.504171270582311
aF7.486893542930215
aF7.469825195935139
aF7.4127640174265625
aF7.416318345093869
aF7.4243442626372325
aF7.4190807777897785
aF7.398480231041125
aF7.402146596284703
aF7.396764649467231
aF7.421237371209337
aF7.4251194795877105
aF7.406164132733039
aF7.41119368431411
aF7.417640460671071
aF7.405981867171612
aF7.427917183725115
aF7.428986575462009
aF7.432542977764182
aF7.428749031663754
aF7.42845202254339
aF7.428689636896416
aF7.434847875211999
aF7.4243442626372325
aF7.417400205999965
aF7.4048267465154645
aF7.407074962561926
aF7.4048267465154645
aF7.415235312497031
aF7.443078374348516
aF7.453677739785557
aF7.46697098689622
aF7.468456192241776
aF7.464280581999118
aF7.464051276792885
aF7.45211238595692
aF7.463707220364237
aF7.4767554667992
aF7.474828902286714
aF7.47278495676164
aF7.494318974139299
aF7.496874389118035
aF7.495097400645106
aF7.481386673540519
aF7.488908882581157
aF7.493038813666137
aF7.492648874101828
aF7.487229715053506
aF7.486108701540001
aF7.476812074311032
aF7.459799618564082
aF7.45298232946546
aF7.452866380714678
aF7.441203080784407
aF7.443956209079356
aF7.439265493940961
aF7.43673511332817
aF7.435261012999326
aF7.449905135990154
aF7.450137707652345
aF7.467142469362558
aF7.469369069580233
aF7.473466736232399
aF7.46993919502327
aF7.469597158764092
aF7.457320731064058
aF7.463133529797187
aF7.469540141345255
aF7.451996336287531
aF7.4462933413146635
aF7.446643440513011
aF7.425179086776355
aF7.4030001507811045
aF7.373625376946266
aF7.377946390651944
aF7.380567460549911
aF7.382248813500724
aF7.388946097618437
aF7.4030001507811045
aF7.387894865415763
aF7.386037049672098
aF7.381813178555913
aF7.385851078125209
aF7.380068738514763
aF7.372934790862381
aF7.3512224092233085
aF7.365306700288633
aF7.3595949376002014
aF7.381999902485127
aF7.388698848266207
aF7.393140010266175
aF7.396641995229374
aF7.388389700583898
aF7.391908331332292
aF7.401902589695315
aF7.406346365079785
aF7.415536272561902
aF7.407984963534724
aF7.401231264413015
aF7.406467834864325
aF7.418900851559048
aF7.415656631230881
aF7.419979923661835
aF7.418180822726788
aF7.418480897747794
aF7.427144133408616
aF7.426072768506423
aF7.4455927749949256
aF7.455471981331876
aF7.460317678728209
aF7.461180516366945
aF7.460202577438947
aF7.465598067511184
aF7.467713865298338
aF7.473296334936936
aF7.4746020034259075
aF7.45662785038503
aF7.460087462899854
aF7.46697098689622
aF7.467999440877855
aF7.467713865298338
aF7.45807081043454
aF7.454719949364001
aF7.457493876246726
aF7.454025263681323
aF7.459569283425439
aF7.455645446884944
aF7.458877959512665
aF7.457666991455329
aF7.459742039753069
aF7.47295544521146
aF7.485042573447547
aF7.488125621939122
aF7.485716049732965
aF7.481781028634219
aF7.483694258636541
aF7.489412083508719
aF7.490026763196146
aF7.45298232946546
aF7.452170405741683
aF7.446351699693484
aF7.447926089942593
aF7.4434296007175185
aF7.430944161731526
aF7.4402641135792695
aF7.446410054666804
aF7.447051734723822
aF7.445884737275473
aF7.4414376848910555
aF7.427619927398798
aF7.417700515320821
aF7.41709980646633
aF7.414753587913741
aF7.419560422861628
aF7.416919523421462
aF7.414452392164348
aF7.4119791591135655
aF7.418180822726788
aF7.4197402304679745
aF7.4342573821331355
aF7.435968852349355
aF7.428689636896416
aF7.417340133311995
aF7.420758529995902
aF7.423030986421739
aF7.428333194190806
aF7.426608594435357
aF7.407074962561926
aF7.397684077035143
aF7.403609386817982
aF7.406346365079785
aF7.407014266376662
aF7.416017620344963
aF7.415536272561902
aF7.426072768506423
aF7.425000254550311
aF7.4131863784308205
aF7.412703665575251
aF7.412341477958108
aF7.410830949288067
aF7.409863012128405
aF7.406346365079785
aF7.403792085274689
aF7.404096508547155
aF7.407560399464662
aF7.405981867171612
aF7.414633120500031
aF7.418660899548298
aF7.417340133311995
aF7.418120796915671
aF7.420938122321806
aF7.416077772530009
aF7.410286599923308
aF7.406285624653976
aF7.4034266549764505
aF7.403731189497791
aF7.401292312610585
aF7.38025578842646
aF7.37800887698308
aF7.373625376946266
aF7.36827659283838
aF7.36827659283838
aF7.354426307901425
aF7.3471063830894385
aF7.364673668679218
aF7.3757569055572
aF7.373750886830334
aF7.376946077970846
aF7.374001859350161
aF7.357045866630331
aF7.363342996493512
aF7.360994161895142
aF7.362772165919549
aF7.367266555507388
aF7.366508357455018
aF7.358066274882137
aF7.359913115082284
aF7.39566021936356
aF7.394001283773737
aF7.394923254397453
aF7.392093179911025
aF7.40263443091844
aF7.395291804770174
aF7.374127321993823
aF7.382497662575046
aF7.38044280335703
aF7.388080457299744
aF7.392585942471042
aF7.394431642515125
aF7.397377695097025
aF7.395967127876541
aF7.396089864912596
aF7.398051611495635
aF7.39116859513779
aF7.380193442343332
aF7.360612749392902
aF7.360612749392902
aF7.369915730766847
aF7.36915953941441
aF7.365496531655673
aF7.364293657274302
aF7.381439626067445
aF7.37725878318619
aF7.378321250084049
aF7.392709095180557
aF7.389872738611384
aF7.392031567514591
aF7.3834302954651045
aF7.3661922718564075
aF7.373060387446318
aF7.37800887698308
aF7.366697960868447
aF7.363025908625808
aF7.374817085306952
aF7.372934790862381
aF7.37419004741332
aF7.376946077970846
aF7.368592020403056
aF7.371992313333536
aF7.36915953941441
aF7.366761154018331
aF7.3661922718564075
aF7.367329712737334
aF7.383803105212184
aF7.390860210147528
aF7.395598826356204
aF7.393509218319105
aF7.392893795812142
aF7.394493107219038
aF7.388698848266207
aF7.3853549848495
aF7.381439626067445
aF7.381252797482128
aF7.38678059019833
aF7.3888842910112915
aF7.387647355978202
aF7.388822480583852
aF7.393693771240178
aF7.391230260725329
aF7.393140010266175
aF7.387585469045608
aF7.381065933985369
aF7.388575200661722
aF7.389687479093147
aF7.388760666335648
aF7.3914152346753585
aF7.4029392067581705
aF7.411858356987301
aF7.423150446462498
aF7.422134580947425
aF7.42321017113179
aF7.424582854943762
aF7.4217159832436
aF7.420219559416636
aF7.416739207868757
aF7.43396200478643
aF7.43396200478643
aF7.435202003764363
aF7.437147472321966
aF7.43502495516406
aF7.445767962592091
aF7.461697861821532
aF7.458935588096458
aF7.461410480723483
aF7.460202577438947
aF7.465025460990729
aF7.479807696164023
aF7.4827381011914404
aF7.482062615660549
aF7.482006304598227
aF7.4801462584062826
aF7.4836380393814315
aF7.479751257977932
aF7.488125621939122
aF7.4798641311650265
aF7.4785653196771396
aF7.481161257929534
aF7.47584931053852
aF7.484312461932707
aF7.485940441072401
aF7.479299637782834
aF7.490250189438488
aF7.4863890727533215
aF7.485042573447547
aF7.492481710587662
aF7.493038813666137
aF7.484143898931887
aF7.483919104056263
aF7.48397530751279
aF7.477377973256585
aF7.480823039211541
aF7.479920562981299
aF7.470053181117089
aF7.4665707467467906
aF7.467085311807743
aF7.469026838228501
aF7.468342023957602
aF7.463076142634679
aF7.45118361129214
aF7.4559344892894766
aF7.4551249599287415
aF7.446410054666804
aF7.448566798238384
aF7.4488578936323995
aF7.44600149832412
aF7.448217371876434
aF7.446935096244656
aF7.453040298799698
aF7.453735668822503
aF7.447809553408257
aF7.427322582684883
aF7.4303513583470435
aF7.449788829872321
aF7.456454555176209
aF7.4584168112453275
aF7.46060537400336
aF7.459281289874504
aF7.460087462899854
aF7.4570320891223805
aF7.457263009340472
aF7.454430555641825
aF7.447926089942593
aF7.4489161025442
aF7.458474466409805
aF7.458705053832282
aF7.456685608781673
aF7.4570320891223805
aF7.4691409283598285
aF7.4681707470881245
aF7.468227842637542
aF7.4681707470881245
aF7.463190913666597
aF7.454662077319076
aF7.456512323582683
aF7.4481008692841195
aF7.45054457795352
aF7.447751280047908
aF7.442199768346762
aF7.43955930913332
aF7.44114442115688
aF7.44114442115688
aF7.448217371876434
aF7.446585099157725
aF7.451648106452324
aF7.443839208962222
aF7.438207043883306
aF7.438030526569441
aF7.437677398439116
aF7.439970505426598
aF7.4243442626372325
aF7.421357045694879
aF7.413970290190444
aF7.413729152017103
aF7.417820613801719
aF7.418900851559048
aF7.418180822726788
aF7.41728005701508
aF7.4127640174265625
aF7.425953657077541
aF7.4238669071773655
aF7.43502495516406
aF7.432187906154344
aF7.415295511756598
aF7.41360856112157
aF7.415776975415394
aF7.415596453707168
aF7.417760566364225
aF7.425357887027151
aF7.424403916050917
aF7.415897305118926
aF7.423090718225956
aF7.4293427853921585
aF7.429164696287772
aF7.435142991047106
aF7.435261012999326
aF7.431832708423876
aF7.433016210544383
aF7.435673980174305
aF7.435202003764363
aF7.4296988684819745
aF7.421656169265056
aF7.414633120500031
aF7.415656631230881
aF7.417640460671071
aF7.428214351716366
aF7.426668112930747
aF7.427322582684883
aF7.4196802981914285
aF7.424702129753064
aF7.428808422903564
aF7.425834531459436
aF7.427917183725115
aF7.422373700986824
aF7.419200710627534
aF7.420099748717398
aF7.410165593146781
aF7.410347097821024
aF7.407984963534724
aF7.399764988490487
aF7.3856030622509214
aF7.389007900405763
aF7.3869044598875755
aF7.383181678396262
aF7.367645439068375
aF7.369348640867902
aF7.365496531655673
aF7.375569012154837
aF7.389563953677635
aF7.386718649599344
aF7.3791953760138345
aF7.36915953941441
aF7.36593933142253
aF7.36783482703018
aF7.368655093978402
aF7.367961065747761
aF7.368402775803847
aF7.366571562587296
aF7.364293657274302
aF7.366887528339237
aF7.37619518625169
aF7.376820968499896
aF7.373123179823344
aF7.376633274940362
aF7.380505133895898
aF7.384113673865881
aF7.387028314235021
aF7.386718649599344
aF7.387771118354598
aF7.387214066998628
aF7.382870820114048
aF7.385851078125209
aF7.381128225697476
aF7.382497662575046
aF7.382248813500724
aF7.37725878318619
aF7.378071359409918
aF7.378071359409918
aF7.37994401913321
aF7.36315275583851
aF7.350066488210964
aF7.365559800770875
aF7.366950709511269
aF7.365306700288633
aF7.371363501139013
aF7.370230641807081
aF7.3573648560744855
aF7.355065857680196
aF7.306330036385547
aF7.310015256141353
aF7.245512404066225
aF7.240147776200975
aF7.244727390645001
aF7.261505951403623
aF7.25035158231131
aF7.271217139609844
aF7.265709404419249
aF7.2668971774846565
aF7.29505641646263
aF7.302900654683446
aF7.291315551702252
aF7.298106749280254
aF7.298377440220527
aF7.298039065094637
aF7.294581082871363
aF7.304852137419785
aF7.293289751601423
aF7.298445101508147
aF7.292677485858972
aF7.296819965722521
aF7.296616637923521
aF7.287218584551301
aF7.2786979530518785
aF7.2716342117693715
aF7.275449289403303
aF7.265429723253953
aF7.242511758819846
aF7.238568677394522
aF7.219056217032552
aF7.242869450993779
aF7.24422751560335
aF7.251699530442051
aF7.242010774733505
aF7.242583307490861
aF7.235691184581063
aF7.241366283322318
aF7.244655995221417
aF7.240147776200975
aF7.256226665570181
aF7.258975372237906
aF7.240291207067544
aF7.255379387400452
aF7.254389988026454
aF7.250990310554167
aF7.260452321551646
aF7.256438372991317
aF7.23511469108668
aF7.235547092361794
aF7.234105027074757
aF7.239717360125464
aF7.240219494205811
aF7.238424999233355
aF7.237346754511128
aF7.238065713489541
aF7.233744185588505
aF7.226645278558111
aF7.206228912512117
aF7.171426381472415
aF7.170811611607514
aF7.170657860069695
aF7.1612340300924195
aF7.151642191434247
aF7.126328401781586
aF7.116962164557473
aF7.126489121807647
aF7.139263746627974
aF7.144249314664485
aF7.137834721297459
aF7.136005767664492
aF7.129537904657005
aF7.113630588729827
aF7.121252453244542
aF7.138787631716584
aF7.16193227287652
aF7.168502852693713
aF7.160923543402042
aF7.165648022623166
aF7.165107001626084
aF7.166034287064601
aF7.169273031413239
aF7.160690615104083
aF7.167346471267392
aF7.181972100480348
aF7.199005976310943
aF7.205857868761802
aF7.204595289218684
aF7.198407934878751
aF7.200424892944957
aF7.1963119688445785
aF7.198557478770161
aF7.192633424101183
aF7.198707000301541
aF7.191956299597262
aF7.183567178863431
aF7.181211644169936
aF7.184780771245389
aF7.175030541656255
aF7.161156417457044
aF7.1808311990445555
aF7.182428096840278
aF7.195412351121413
aF7.202214335712942
aF7.200797957676014
aF7.204074939829503
aF7.221835825288449
aF7.228968834642711
aF7.229186391480292
aF7.232805387902657
aF7.227371969964263
aF7.228388451573604
aF7.230490739491305
aF7.243798852311796
aF7.248717420876202
aF7.24750784372492
aF7.2605928696896145
aF7.267106638124278
aF7.256650035601907
aF7.2518413140804565
aF7.239717360125464
aF7.243227015269766
aF7.2554500213400885
aF7.254531390741622
aF7.242940974077885
aF7.237778191923443
aF7.239645606098239
aF7.237993840847831
aF7.234682102759819
aF7.220739534296136
aF7.219056217032552
aF7.193234927878718
aF7.196162088748375
aF7.194286689676522
aF7.1874303810320015
aF7.220154353970755
aF7.225990804477374
aF7.2196420401307355
aF7.192783833968354
aF7.19361068409251
aF7.192106811337462
aF7.198557478770161
aF7.199155430802329
aF7.203033428055546
aF7.207489432458059
aF7.20251226510588
aF7.198183577101943
aF7.187203546506814
aF7.186220001884308
aF7.187505981107638
aF7.1820481143149015
aF7.189771329807291
aF7.192106811337462
aF7.185992892605918
aF7.178392916824659
aF7.165416192321907
aF7.151955572821957
aF7.1612340300924195
aF7.15999150449962
aF7.159525159084669
aF7.187883895779004
aF7.188941297690216
aF7.1846291527173145
aF7.188035021667156
aF7.203256700486049
aF7.201767275128788
aF7.208970365716502
aF7.2115567333138015
aF7.210449109054355
aF7.216048475338027
aF7.2149458178219605
aF7.214504414151143
aF7.201618210508999
aF7.190600673542391
aF7.182124122371793
aF7.186598402766713
aF7.184401681813654
aF7.186371379420171
aF7.1891677384203225
aF7.179688994465779
aF7.160069207596127
aF7.161311636704542
aF7.158124816549939
aF7.1572680853164155
aF7.165029689012492
aF7.162939985841142
aF7.162242446576277
aF7.161777149941283
aF7.153286349173976
aF7.151485463904735
aF7.130338673437784
aF7.1294577924999425
aF7.125443979613383
aF7.132976670091312
aF7.135846570020281
aF7.13385445812198
aF7.126890808898808
aF7.134332927030629
aF7.131938289871009
aF7.131458673554861
aF7.111185798986327
aF7.130738817494981
aF7.1252830915107115
aF7.124639280125202
aF7.114769448366463
aF7.124880757970784
aF7.144328250608008
aF7.140928365933525
aF7.135926172010372
aF7.121252453244542
aF7.121413991085132
aF7.130978827096517
aF7.128816664092023
aF7.1258460866596955
aF7.111593679238341
aF7.095313102571338
aF7.094234845924755
aF7.0945667410489435
aF7.102581656914566
aF7.1049654482698426
aF7.103075321561748
aF7.101346428034322
aF7.100687014888107
aF7.0948155901232655
aF7.114932036774268
aF7.122705355267819
aF7.121252453244542
aF7.129217417513809
aF7.126730153424127
aF7.11574458252467
aF7.11550088811625
aF7.129698109719828
aF7.130818827096176
aF7.1346517791656545
aF7.1346517791656545
aF7.125926488669789
aF7.126408765023482
aF7.134412649596143
aF7.138390696054643
aF7.137198942844827
aF7.135050201418823
aF7.125524413958892
aF7.142511145624513
aF7.148424357162165
aF7.153286349173976
aF7.151642191434247
aF7.13934307707901
aF7.1465359310757455
aF7.144722836889416
aF7.134572075662643
aF7.125926488669789
aF7.143222579985179
aF7.139105066843446
aF7.148188498833307
aF7.143538610642783
aF7.147559271189454
aF7.1464571692122
aF7.1526603220778595
aF7.164024080728175
aF7.166883544015857
aF7.172117546112301
aF7.185917178049759
aF7.188186124719725
aF7.194061405253987
aF7.191956299597262
aF7.186825374585354
aF7.188941297690216
aF7.1915046284062045
aF7.189394127886633
aF7.199379570666542
aF7.2028845520689675
aF7.204000582094406
aF7.197061032550016
aF7.195112298609972
aF7.198781752684307
aF7.211039994661325
aF7.20934025660291
aF7.201394571908045
aF7.20993179758437
aF7.20926628937036
aF7.199528969337171
aF7.203554319535866
aF7.209192316666254
aF7.222566018822171
aF7.225772551229991
aF7.234970515769245
aF7.237130965983047
aF7.235547092361794
aF7.220593271315036
aF7.214651570357722
aF7.196087140275415
aF7.201916317531627
aF7.195562343622069
aF7.19548735018396
aF7.182580049431362
aF7.182200124651898
aF7.174953992492518
aF7.168888016200381
aF7.168271683361149
aF7.168733968599368
aF7.160379959618515
aF7.165338903609885
aF7.165184308262897
aF7.175030541656255
aF7.173115052429426
aF7.173038356490439
aF7.180755092647776
aF7.181287715829476
aF7.188563782490745
aF7.187808324269427
aF7.1915046284062045
aF7.19315975968986
aF7.190072988934768
aF7.174494574413993
aF7.173038356490439
aF7.166574806748817
aF7.168656935898949
aF7.17042718842975
aF7.163946684342547
aF7.161078798797479
aF7.167269331605997
aF7.173575104576783
aF7.1740349451734815
aF7.174724309836376
aF7.17042718842975
aF7.167809184316444
aF7.163559612535895
aF7.172654788536674
aF7.171656822768514
aF7.181667987347919
aF7.180298332591114
aF7.1808311990445555
aF7.1661115220520895
aF7.165416192321907
aF7.16193227287652
aF7.172654788536674
aF7.168733968599368
aF7.176713142435639
aF7.175260153995101
aF7.168502852693713
aF7.164565687766831
aF7.173498443915165
aF7.167192185993616
aF7.166883544015857
aF7.172424577124845
aF7.166420402363426
aF7.163791873598372
aF7.165261608923856
aF7.164720378771857
aF7.144170372489587
aF7.13854948922687
aF7.138866999945524
aF7.131298750317674
aF7.13041871505947
aF7.1284959456800365
aF7.129858289121099
aF7.135368824967799
aF7.1364036509307915
aF7.13385445812198
aF7.136244516621099
aF7.1407699500916095
aF7.142352980341463
aF7.1499953259873354
aF7.152738596900803
aF7.153521008332627
aF7.158124816549939
aF7.149053040876389
aF7.153208117216181
aF7.186598402766713
aF7.184856571889731
aF7.181211644169936
aF7.183794839649844
aF7.189318670425741
aF7.188488262345711
aF7.184932366788771
aF7.186674065763761
aF7.182200124651898
aF7.191881035231141
aF7.194511923357417
aF7.193385247307787
aF7.190072988934768
aF7.1874303810320015
aF7.185917178049759
aF7.1852354889493215
aF7.1886392969329185
aF7.193760947052973
aF7.203628710460207
aF7.199304862960407
aF7.199827699735211
aF7.199304862960407
aF7.180298332591114
aF7.172424577124845
aF7.188488262345711
aF7.185311255134909
aF7.179231747086985
aF7.183643071551207
aF7.1802221856274375
aF7.17801139761054
aF7.173575104576783
aF7.175948674850056
aF7.176025147912457
aF7.176942368797674
aF7.178926799306929
aF7.171119043782712
aF7.167500732740895
aF7.167269331605997
aF7.165416192321907
aF7.166188751074794
aF7.164720378771857
aF7.176865965848482
aF7.180755092647776
aF7.186976660516051
aF7.1785454837637
aF7.1785454837637
aF7.183263550502209
aF7.181211644169936
aF7.184174159155208
aF7.181363781702559
aF7.172654788536674
aF7.1725780572878355
aF7.171503201138287
aF7.167809184316444
aF7.162552524098142
aF7.1565665770449245
aF7.1553182348370905
aF7.155162082432026
aF7.162707526810999
aF7.15999150449962
aF7.166883544015857
aF7.163094928512663
aF7.162009825321399
aF7.159525159084669
aF7.147401902395361
aF7.151171935135903
aF7.148424357162165
aF7.146772179452637
aF7.147873934502308
aF7.136960421674942
aF7.136801375948961
aF7.130738817494981
aF7.123108564821284
aF7.114037473220935
aF7.121171674537765
aF7.123914496521902
aF7.121817721560154
aF7.112653389954997
aF7.113060672166467
aF7.105786129481271
aF7.107507370838976
aF7.101181615508198
aF7.082380629141621
aF7.097052449512517
aF7.100274660752538
aF7.1093074040528705
aF7.116962164557473
aF7.110451195027242
aF7.116231793252942
aF7.120201820748012
aF7.120525209868786
aF7.130098510125578
aF7.126649816006932
aF7.123833932574225
aF7.1218984480990475
aF7.129137279676686
aF7.134572075662643
aF7.130098510125578
aF7.126328401781586
aF7.117692002809065
aF7.113304961895299
aF7.116069416050345
aF7.118421308785234
aF7.114932036774268
aF7.1026639512815635
aF7.092074838438765
aF7.066125614953578
aF7.06766079649176
aF7.067319848653476
aF7.063903961472068
aF7.046734306263588
aF7.070554169287227
aF7.07140357051047
aF7.070129197966396
aF7.067149331132387
aF7.0641605581462725
aF7.062619989543053
aF7.084058763450528
aF7.080363143588452
aF7.084561655087982
aF7.093238499113671
aF7.091492499917254
aF7.087155907348428
aF7.095893221097532
aF7.093321565940981
aF7.092324308316571
aF7.092158001979916
aF7.091076336109175
aF7.089493332237676
aF7.082044664078827
aF7.061505878788056
aF7.106606137727303
aF7.0986235417445585
aF7.101675971619444
aF7.100357145183648
aF7.095727507284906
aF7.082212660719289
aF7.0964730032813295
aF7.1204443723924875
aF7.121090889305261
aF7.116475309630623
aF7.112164432240096
aF7.108735017594625
aF7.10971605102844
aF7.107507370838976
aF7.091908490605062
aF7.100769465314835
aF7.090743280319252
aF7.08631978689838
aF7.091991667980864
aF7.076991596227436
aF7.073947453846208
aF7.088909488024084
aF7.086821543055419
aF7.087323047579471
aF7.097714262905303
aF7.080026499922591
aF7.079352872413116
aF7.085566680298205
aF7.080194835921641
aF7.095976067707081
aF7.107916753904423
aF7.1049654482698426
aF7.103486522686009
aF7.107179743675754
aF7.111593679238341
aF7.119150083261799
aF7.125202637751466
aF7.125926488669789
aF7.143380607798402
aF7.155396301896734
aF7.155474362862388
aF7.153677417185686
aF7.167500732740895
aF7.173498443915165
aF7.174341388139183
aF7.17127272443462
aF7.167809184316444
aF7.168965031102803
aF7.167732080341696
aF7.164952370421198
aF7.158903026705945
aF7.1574239092357015
aF7.156254637558655
aF7.1515638307399305
aF7.158280507037564
aF7.149681329595714
aF7.149288695407938
aF7.145511542664193
aF7.121575502835463
aF7.12536353879767
aF7.126971126958367
aF7.121575502835463
aF7.11574458252467
aF7.118178265886966
aF7.114281524472909
aF7.119231025428665
aF7.117610935969411
aF7.10175834054993
aF7.108653221349027
aF7.101840702696333
aF7.092490587000027
aF7.097962330050082
aF7.093902840609621
aF7.0995319945468465
aF7.106196217655975
aF7.105457937814394
aF7.102581656914566
aF7.108980366195325
aF7.10175834054993
aF7.097135200143538
aF7.09738341095853
aF7.090326804531299
aF7.064673554053556
aF7.069023426578259
aF7.064673554053556
aF7.060390525405731
aF7.061162825611449
aF7.05738145293795
aF7.053499293034843
aF7.059273926621047
aF7.0546223547916895
aF7.068172000388042
aF7.070809065418435
aF7.079689742889605
aF7.078847353824543
aF7.0827164813698
aF7.085650386823178
aF7.089409946788388
aF7.1058681605711005
aF7.094234845924755
aF7.089243155027514
aF7.088241819830362
aF7.081792616188394
aF7.0967213784947605
aF7.095727507284906
aF7.100274660752538
aF7.104636987107422
aF7.109634334991623
aF7.102417047860697
aF7.0997796112374765
aF7.091575711899828
aF7.098540914188221
aF7.097052449512517
aF7.097631560180201
aF7.091076336109175
aF7.093902840609621
aF7.097300680865411
aF7.0960589074536395
aF7.095313102571338
aF7.097135200143538
aF7.09307234475589
aF7.093653764266434
aF7.088158329953461
aF7.086236136390154
aF7.073184968105874
aF7.095478885065086
aF7.102170083463475
aF7.100687014888107
aF7.095727507284906
aF7.077413661822694
aF7.073015447847797
aF7.083723361803917
aF7.089409946788388
aF7.087657244257324
aF7.0825485693553
aF7.083807222762497
aF7.081708586105575
aF7.082800426805315
aF7.087406607220212
aF7.105293801580952
aF7.112164432240096
aF7.1113489710516316
aF7.11085937495862
aF7.116312971967928
aF7.110206207071258
aF7.100274660752538
aF7.100274660752538
aF7.102005406641365
aF7.094483777594298
aF7.097548850614793
aF7.095810367623852
aF7.081960655173834
aF7.083303951488663
aF7.084058763450528
aF7.086821543055419
aF7.093155425385689
aF7.08631978689838
aF7.085817778855708
aF7.0782572589707495
aF7.0716582502520735
aF7.065613363597717
aF7.0707241072602764
aF7.075386120366088
aF7.083220048312879
aF7.079689742889605
aF7.07656935241759
aF7.07842589303523
aF7.081540504753805
aF7.079521321836575
aF7.080699673963495
aF7.094234845924755
aF7.093155425385689
aF7.090743280319252
aF7.089743446874854
aF7.07985813558176
aF7.07284589884773
aF7.07140357051047
aF7.071573364211532
aF7.078763075875818
aF7.0790158884166665
aF7.073439194623068
aF7.068853199324465
aF7.06313377616165
aF7.064502584656662
aF7.068682943088419
aF7.068001628124234
aF7.064417088995514
aF7.059617628291383
aF7.061934529829811
aF7.060218822108606
aF7.0594457922225695
aF7.059531713947931
aF7.055140265895195
aF7.052894044648376
aF7.046124948246909
aF7.04342189040367
aF7.032889009738903
aF7.032271153679704
aF7.010943436778306
aF7.005244900259394
aF7.007600613951853
aF7.003883306076357
aF7.002246942074855
aF7.007329083878229
aF7.001882941706835
aF7.003792467179079
aF7.001427754844772
aF7.0058796769753355
aF6.999604932612016
aF7.000607895996754
aF6.9976873864827445
aF6.995308175989998
aF6.996955924440439
aF7.002155954403621
aF6.9974131509126725
aF7.010763029056366
aF7.01920720427628
aF7.02651561470298
aF7.026337994809085
aF7.021797995022797
aF7.0162508751354355
aF7.02313543002221
aF7.021797995022797
aF7.033770999564997
aF7.0519421992946345
aF7.062105938812062
aF7.060476365999801
aF7.06424607574157
aF7.052721049232323
aF7.043945633432402
aF7.028998986267501
aF7.038958964597482
aF7.0334182969777945
aF7.035444640123027
aF7.044469102297959
aF7.040623952056562
aF7.0334182969777945
aF7.029353250729624
aF7.0240260606475236
aF7.025004839032377
aF7.026604412820518
aF7.025538314638521
aF7.016071422465596
aF7.01427512235981
aF7.009860501919291
aF7.012295458256061
aF7.011123811959171
aF7.024471078678098
aF7.0328007679563616
aF7.0397479884406335
aF7.038344848685739
aF7.038432602623753
aF7.035180567237376
aF7.033065469947584
aF7.052807550681276
aF7.048299523974445
aF7.044469102297959
aF7.045602345674262
aF7.033506484287697
aF7.027758071376834
aF7.019654371479546
aF7.039485049660032
aF7.03816931770407
aF7.039835619339345
aF7.048038824429193
aF7.050122520269059
aF7.048125731829413
aF7.0554853910064725
aF7.0530670101421915
aF7.063647298939111
aF7.063476153978913
aF7.081204257272494
aF7.081960655173834
aF7.076653815443951
aF7.0708940163593175
aF7.071318662847503
aF7.073354459631703
aF7.072337079298082
aF7.065784143207047
aF7.0725067145826275
aF7.059187982742347
aF7.063818414613725
aF7.063304979723102
aF7.075216972869067
aF7.058156079649662
aF7.047256317759695
aF7.040273658682281
aF7.041061646290362
aF7.036939737362963
aF7.02331361961641
aF7.013195791440134
aF7.012205380338601
aF6.99365770798284
aF6.998783577329701
aF6.9976873864827445
aF6.996955924440439
aF6.9930151229329605
aF6.991728712758316
aF6.993382364949574
aF7.000972360693271
aF6.988597666826238
aF6.978120541642701
aF6.989980219237807
aF6.99117688712121
aF6.982491625096154
aF6.981656086821672
aF6.98536425830912
aF6.985086621918461
aF6.979703778294721
aF6.978679617318836
aF6.963662910920433
aF6.9748530225146315
aF6.979424565672496
aF6.976348070447749
aF6.9708239704491195
aF6.992464006909091
aF6.990348577285991
aF6.990440645600745
aF6.982769982787583
aF6.98933526597456
aF6.981098673206347
aF6.983975304893546
aF6.979331477471359
aF6.9817489588904635
aF6.973262081184257
aF6.982584419602786
aF6.977840886548825
aF6.975507381032956
aF6.971574791695091
aF6.985549306422158
aF6.984994059322939
aF6.980261969768885
aF6.981656086821672
aF6.981656086821672
aF6.981098673206347
aF6.979889876741336
aF6.976908137670454
aF6.968944447294559
aF6.97176240895643
aF6.987582578841692
aF6.985919299951491
aF6.998235632110512
aF7.011844987506518
aF7.014005398824796
aF7.010041072522887
aF7.010311867307229
aF7.0015188087943
aF6.9985096422506015
aF6.998326977166524
aF6.999878567857943
aF6.994208166712336
aF6.996589992682628
aF6.9974131509126725
aF7.010943436778306
aF7.0067858024450915
aF7.004791241493732
aF7.001154543240687
aF7.010943436778306
aF7.02331361961641
aF7.027935439238242
aF7.02509377139937
aF7.019117746835597
aF7.018938807942752
aF7.029176134186477
aF7.029884412215201
aF7.043247248419294
aF7.0536721538822915
aF7.068172000388042
aF7.06544255481773
aF7.090576710817743
aF7.088909488024084
aF7.088575709649825
aF7.139263746627974
aF7.1271317437271025
aF7.117610935969411
aF7.118097238459137
aF7.1035687426243905
aF7.1010167758144265
aF7.122140588622448
aF7.117935163904488
aF7.1113489710516316
aF7.111185798986327
aF7.1165564685804705
aF7.13289683295902
aF7.124880757970784
aF7.122463351475245
aF7.108489608783217
aF7.124156149428954
aF7.129297548929373
aF7.125765678184599
aF7.144407180321139
aF7.154068332322989
aF7.14172006892793
aF7.148738748424678
aF7.152582041127489
aF7.142352980341463
aF7.149053040876389
aF7.156488601295344
aF7.133375760171239
aF7.138866999945524
aF7.1204443723924875
aF7.14172006892793
aF7.147244508832433
aF7.1439335085668025
aF7.135209525883432
aF7.134890851565884
aF7.138628876358258
aF7.130098510125578
aF7.1093074040528705
aF7.103897554793403
aF7.102993061042638
aF7.108735017594625
aF7.124800271834477
aF7.125443979613383
aF7.121979168121693
aF7.118502309959795
aF7.107998610410014
aF7.108407792460815
aF7.119878327012882
aF7.116150607947438
aF7.124961237629593
aF7.124719779219631
aF7.1284157500025405
aF7.13854948922687
aF7.140215296933696
aF7.135846570020281
aF7.12568526324346
aF7.119150083261799
aF7.122140588622448
aF7.123833932574225
aF7.135846570020281
aF7.136801375948961
aF7.146614686736349
aF7.132178011794727
aF7.117043284005906
aF7.123995053979552
aF7.127452899892047
aF7.131138801500954
aF7.146220846394131
aF7.166729187297174
aF7.166906695468804
aF7.1727622023947
aF7.171157466159909
aF7.161684064628527
aF7.159113039657515
aF7.166482166978497
aF7.1603488887614235
aF7.158490650753289
aF7.147559271189454
aF7.153434973034637
aF7.154677854960619
aF7.151422766014499
aF7.148974477023577
aF7.160612960279738
aF7.155786545804125
aF7.155630466515531
aF7.139581030679181
aF7.138311290011801
aF7.13528917859764
aF7.131538625583686
aF7.114606833519369
aF7.117286602876485
aF7.106114213473716
a.