(lp0
F5.593223284089137
aF5.585374243605899
aF5.586499314041468
aF5.586124431187969
aF5.589866950526307
aF5.586499314041468
aF5.577841251298354
aF5.573294066502264
aF5.573294066502264
aF5.576327819303087
aF5.572534188046247
aF5.571773731735836
aF5.5706319618686955
aF5.572914199451162
aF5.577084821610244
aF5.577841251298354
aF5.577841251298354
aF5.581238121898107
aF5.575570243509278
aF5.572534188046247
aF5.568344503761097
aF5.5698700570699335
aF5.571393286610456
aF5.576327819303087
aF5.582744146279145
aF5.585374243605899
aF5.58799744166249
aF5.5801071132949795
aF5.569107571329599
aF5.5698700570699335
aF5.562218910334414
aF5.557214087568064
aF5.561834812000519
aF5.476881874464279
aF5.558756702605943
aF5.541655625147766
aF5.536940488710632
aF5.554895693948484
aF5.545177444479562
aF5.545177444479562
aF5.551019720103791
aF5.554508771908447
aF5.5671988095361
aF5.584623492819887
aF5.5782192516808555
aF5.578597109233056
aF5.569107571329599
aF5.5671988095361
aF5.560296941647445
aF5.560681631015528
aF5.568344503761097
aF5.584998938666234
aF5.605434351638425
aF5.596568390349052
aF5.588745664667843
aF5.5706319618686955
aF5.560296941647445
aF5.554508771908447
aF5.555282466337757
aF5.562986664690745
aF5.563753830052498
aF5.564520407322694
aF5.566816619583044
aF5.568726110329361
aF5.564137192142683
aF5.562218910334414
aF5.5583712718823435
aF5.554895693948484
aF5.549853992363464
aF5.552184090505087
aF5.539693686123306
aF5.542047551470635
aF5.550242719287699
aF5.551019720103791
aF5.551407994230199
aF5.559141984829935
aF5.552184090505087
aF5.546348633370026
aF5.5479080878770946
aF5.554121700101795
aF5.556828061699537
aF5.557214087568064
aF5.558756702605943
aF5.560681631015528
aF5.554508771908447
aF5.564137192142683
aF5.573294066502264
aF5.575570243509278
aF5.569107571329599
aF5.571393286610456
aF5.566816619583044
aF5.5675808534758
aF5.574432802628352
aF5.575191240283214
aF5.571773731735836
aF5.574053367981417
aF5.574812093359241
aF5.578974824062853
aF5.580861261143694
aF5.582744146279145
aF5.5801071132949795
aF5.5782192516808555
aF5.5782192516808555
aF5.5909869805108565
aF5.5902404332570725
aF5.588371623144873
aF5.584623492819887
aF5.5909869805108565
aF5.60396213937399
aF5.605434351638425
aF5.651787179537821
aF5.644739934022418
aF5.640132447579745
aF5.640487624283887
aF5.622572419230658
aF5.616771097666572
aF5.624378451868933
aF5.620763118936109
aF5.608738925969307
aF5.579352396278024
aF5.5801071132949795
aF5.578597109233056
aF5.579729825986222
aF5.578597109233056
aF5.579729825986222
aF5.580861261143694
aF5.583120298248974
aF5.608738925969307
aF5.584998938666234
aF5.586124431187969
aF5.596197263976263
aF5.600272098286537
aF5.599532453282402
aF5.60138054103812
aF5.600641715736688
aF5.60396213937399
aF5.60138054103812
aF5.602118820879701
aF5.604330395684541
aF5.6061696457892
aF5.604698516432302
aF5.60396213937399
aF5.589119566336061
aF5.594711379601839
aF5.59879226079857
aF5.589493328254074
aF5.588371623144873
aF5.588371623144873
aF5.577841251298354
aF5.576706392088225
aF5.583496308781699
aF5.5801071132949795
aF5.582744146279145
aF5.5819914176022785
aF5.581238121898107
aF5.582744146279145
aF5.586124431187969
aF5.584623492819887
aF5.584998938666234
aF5.586499314041468
aF5.589119566336061
aF5.5782192516808555
aF5.596939379038152
aF5.592105757431579
aF5.591360045241914
aF5.586874056410478
aF5.581614840681993
aF5.580484258311707
aF5.588745664667843
aF5.5782192516808555
aF5.577084821610244
aF5.583872177983643
aF5.585749407744609
aF5.584998938666234
aF5.5909869805108565
aF5.585749407744609
aF5.583496308781699
aF5.583120298248974
aF5.589493328254074
aF5.605802066295998
aF5.610570092934022
aF5.612397912854348
aF5.610935924289849
aF5.614222397943558
aF5.61458689585173
aF5.61458689585173
aF5.6185876285929695
aF5.611667185748395
aF5.6131281063880705
aF5.612763076269032
aF5.604330395684541
aF5.607271574275357
aF5.60285655606624
aF5.599532453282402
aF5.605066501717044
aF5.605802066295998
aF5.605802066295998
aF5.609105427714293
aF5.6017497490910495
aF5.6017497490910495
aF5.6017497490910495
aF5.605434351638425
aF5.600641715736688
aF5.6017497490910495
aF5.625820933186489
aF5.627261336748458
aF5.634075062231381
aF5.65704021210407
aF5.653891705042736
aF5.655642099328266
aF5.6580875153940715
aF5.660526965985244
aF5.662960480135946
aF5.659482215759621
aF5.6577385361547945
aF5.664695085948154
aF5.665388086668889
aF5.66815529701305
aF5.670225691127358
aF5.664695085948154
aF5.663307642090483
aF5.663307642090483
aF5.66815529701305
aF5.676068636088686
aF5.671259282950641
aF5.661222860237405
aF5.647917341814805
aF5.635146682266063
aF5.6394217154958115
aF5.637998734110198
aF5.636573724962751
aF5.637286483367837
aF5.627621113690637
aF5.625099952621732
aF5.616043560348194
aF5.6131281063880705
aF5.6164073951712
aF5.6153154933338705
aF5.621125240975192
aF5.622572419230658
aF5.629777061345705
aF5.627261336748458
aF5.627621113690637
aF5.6315701405422764
aF5.625820933186489
aF5.627980761239919
aF5.631211781821365
aF5.620763118936109
aF5.6222108209623896
aF5.6240175061873385
aF5.618950539139504
aF5.62293388679288
aF5.61349300330874
aF5.611667185748395
aF5.605802066295998
aF5.6061696457892
aF5.605066501717044
aF5.605802066295998
aF5.605802066295998
aF5.607271574275357
aF5.605802066295998
aF5.607271574275357
aF5.610570092934022
aF5.610204127696635
aF5.610570092934022
aF5.6131281063880705
aF5.613857767128214
aF5.617134667930529
aF5.610935924289849
aF5.610570092934022
aF5.610935924289849
aF5.60248775650462
aF5.60396213937399
aF5.605802066295998
aF5.611667185748395
aF5.611667185748395
aF5.625099952621732
aF5.621487231929371
aF5.62618122863265
aF5.616771097666572
aF5.617861412148562
aF5.619313318029751
aF5.625460507880731
aF5.625460507880731
aF5.6222108209623896
aF5.619313318029751
aF5.628699668531845
aF5.624739267315748
aF5.622572419230658
aF5.624378451868933
aF5.627621113690637
aF5.625099952621732
aF5.627261336748458
aF5.629418059367339
aF5.643678550586496
aF5.653891705042736
aF5.6580875153940715
aF5.6507332535663855
aF5.644386264699545
aF5.6461533618195645
aF5.647212123167807
aF5.644032470250427
aF5.640842674882327
aF5.637998734110198
aF5.628699668531845
aF5.625460507880731
aF5.626901430320244
aF5.630853294633443
aF5.627621113690637
aF5.624378451868933
aF5.636573724962751
aF5.637998734110198
aF5.6394217154958115
aF5.653541258219454
aF5.651787179537821
aF5.66815529701305
aF5.689007189074046
aF5.694068782468562
aF5.706113089994483
aF5.695414224985685
aF5.6937321388027
aF5.68833037009728
aF5.695414224985685
aF5.6957503029589365
aF5.697093486505405
aF5.6917098934219315
aF5.6777806721172
aF5.671603576291966
aF5.668845904775305
aF5.674353663965389
aF5.678806488586024
aF5.671603576291966
aF5.676068636088686
aF5.687991788749877
aF5.688668836846153
aF5.686297160315181
aF5.6950780340260545
aF5.6917098934219315
aF5.681877639268151
aF5.677438499316599
aF5.665734407018671
aF5.660874973644924
aF5.666426688112432
aF5.666772649022301
aF5.66953603592761
aF5.678806488586024
aF5.670914871030584
aF5.666426688112432
aF5.66815529701305
aF5.668500660511562
aF5.674353663965389
aF5.674696893761104
aF5.675383000134503
aF5.6791481936978405
aF5.69204721843778
aF5.688668836846153
aF5.689683550276699
aF5.7047819749892845
aF5.710758088392627
aF5.710095836712793
aF5.705447753975262
aF5.710095836712793
aF5.706777983635999
aF5.700109069289892
aF5.697093486505405
aF5.702114417555504
aF5.697093486505405
aF5.696757859719236
aF5.693395381769714
aF5.705780477318874
aF5.703782474656201
aF5.705447753975262
aF5.700777965635902
aF5.6950780340260545
aF5.6957503029589365
aF5.708106446136256
aF5.706445592075685
aF5.70877001616724
aF5.70877001616724
aF5.708438286192395
aF5.714062784063757
aF5.715381610499553
aF5.722931293494962
aF5.736894826106403
aF5.733341276897746
aF5.725543966437714
aF5.725870071120206
aF5.724565013838729
aF5.726847747587197
aF5.740435792304236
aF5.736572297479192
aF5.732693818150621
aF5.729125282327996
aF5.728475087246572
aF5.734311679691024
aF5.736249664793703
aF5.733341276897746
aF5.725870071120206
aF5.723585101952381
aF5.731073334892105
aF5.733341276897746
aF5.736572297479192
aF5.736572297479192
aF5.7481182884762525
aF5.7551091018215415
aF5.7535245665510155
aF5.765504533284198
aF5.770194240175453
aF5.7670702138921195
aF5.767383056065796
aF5.776723099057916
aF5.778580684731388
aF5.780126041243535
aF5.786897381366708
aF5.782593655080491
aF5.780743515792329
aF5.768320995793772
aF5.77081787599236
aF5.778580684731388
aF5.781052110147502
aF5.761107541275471
aF5.75447558897172
aF5.763936397475948
aF5.757323241584231
aF5.761422254102616
aF5.764250221423291
aF5.757639147446912
aF5.757323241584231
aF5.765191102784844
aF5.768320995793772
aF5.7745515455444085
aF5.777032936395794
aF5.774240938304763
aF5.760477818332746
aF5.76456394691606
aF5.756691130311603
aF5.744284417965531
aF5.74748032992192
aF5.739792912179234
aF5.7430031878094825
aF5.737861788309064
aF5.736894826106403
aF5.737861788309064
aF5.735926927982768
aF5.736572297479192
aF5.741399338227508
aF5.749392985908253
aF5.746841964116648
aF5.751937516543248
aF5.754158681981268
aF5.75447558897172
aF5.757007235893499
aF5.753841674528938
aF5.756058619221572
aF5.7595324897606925
aF5.7791991139409555
aF5.774862056337153
aF5.741720313996593
aF5.727173427446777
aF5.733017599924536
aF5.705447753975262
aF5.713732805509369
aF5.70877001616724
aF5.712411801354255
aF5.710758088392627
aF5.698769932832657
aF5.716369590161673
aF5.722931293494962
aF5.7232582511568575
aF5.7196558238124915
aF5.722604228896789
aF5.736894826106403
aF5.730099782973574
aF5.745564008671156
aF5.746841964116648
aF5.747161197958146
aF5.739792912179234
aF5.739792912179234
aF5.743323649276734
aF5.7430031878094825
aF5.719983853994209
aF5.724565013838729
aF5.723585101952381
aF5.719327685991663
aF5.718014056902925
aF5.725217755376266
aF5.7242384832235835
aF5.730099782973574
aF5.734634938138965
aF5.734634938138965
aF5.742682623613757
aF5.742361956623676
aF5.741399338227508
aF5.739471317064708
aF5.743644008081332
aF5.749074463847908
aF5.760162808092309
aF5.766757273817589
aF5.766757273817589
aF5.75890177387728
aF5.7506660605550515
aF5.757007235893499
aF5.754158681981268
aF5.757323241584231
aF5.750347943803522
aF5.74748032992192
aF5.757954953544594
aF5.765504533284198
aF5.768633446975818
aF5.773308537304811
aF5.772686453303412
aF5.7745515455444085
aF5.774240938304763
aF5.763936397475948
aF5.764250221423291
aF5.767695800399854
aF5.768945800562614
aF5.766757273817589
aF5.7670702138921195
aF5.770194240175453
aF5.765817865575654
aF5.773930234558283
aF5.771441123130016
aF5.761422254102616
aF5.762051382780177
aF5.7554257078080395
aF5.754792395563946
aF5.75890177387728
aF5.757323241584231
aF5.743644008081332
aF5.74652262833236
aF5.734958092124651
aF5.737217250742439
aF5.744284417965531
aF5.735926927982768
aF5.738183901373533
aF5.741399338227508
aF5.732693818150621
aF5.740435792304236
aF5.744924417987376
aF5.751619804070361
aF5.754158681981268
aF5.753841674528938
aF5.758270659940271
aF5.763308453970228
aF5.757007235893499
aF5.7595324897606925
aF5.757323241584231
aF5.762051382780177
aF5.768320995793772
aF5.771441123130016
aF5.766444235780912
aF5.768945800562614
aF5.75984769858915
aF5.75890177387728
aF5.760477818332746
aF5.761422254102616
aF5.762680115903686
aF5.75890177387728
aF5.758586266696875
aF5.756691130311603
aF5.767695800399854
aF5.757954953544594
aF5.75890177387728
aF5.756374924775372
aF5.7554257078080395
aF5.757639147446912
aF5.762051382780177
aF5.75447558897172
aF5.758270659940271
aF5.765504533284198
aF5.7698822763607245
aF5.778889947143006
aF5.781977322241258
aF5.775793010632473
aF5.775482788821392
aF5.780126041243535
aF5.799092654460526
aF5.806940566758827
aF5.8045323777563445
aF5.815919974593051
aF5.815919974593051
aF5.838604700463646
aF5.825114759823726
aF5.830121396699219
aF5.829533679961761
aF5.841803772553575
aF5.839478190110101
aF5.8484598526909775
aF5.855358414110991
aF5.83568754553614
aF5.847882818629958
aF5.834518296645255
aF5.837438859468874
aF5.85821882796062
aF5.842094090453713
aF5.843254519942795
aF5.861071083174386
aF5.8585044198517515
aF5.861071083174386
aF5.860501282589169
aF5.853351244978348
aF5.857933154483459
aF5.872962503026981
aF5.8738065036397495
aF5.8732439157205505
aF5.8664680569332965
aF5.878855602725328
aF5.887769310769217
aF5.89330029832075
aF5.907539312170221
aF5.905906658746336
aF5.900718933801237
aF5.900718933801237
aF5.89330029832075
aF5.9050893313612365
aF5.908082938168931
aF5.908082938168931
aF5.918893854273146
aF5.912150740388256
aF5.906995390481532
aF5.905361848054571
aF5.890538628518022
aF5.888046587909494
aF5.861925175752996
aF5.851627601920183
aF5.8544986920348245
aF5.833640461914415
aF5.83656358589002
aF5.834518296645255
aF5.855644823965447
aF5.859360706474645
aF5.862494165811022
aF5.857933154483459
aF5.858789930203441
aF5.860786223465865
aF5.842384324093829
aF5.84267447352282
aF5.857361562584502
aF5.842964538789538
aF5.8547853481927286
aF5.862778539479937
aF5.863631175598097
aF5.855358414110991
aF5.857933154483459
aF5.861925175752996
aF5.8524897948173935
aF5.844123959209273
aF5.8045323777563445
aF5.80392942326114
aF5.81651574464344
aF5.81353333861532
aF5.810542011227735
aF5.8114403493627105
aF5.803627809625917
aF5.785669634128385
aF5.786897381366708
aF5.787204082795274
aF5.790265934544339
aF5.792708683850602
aF5.792708683850602
aF5.794536837924666
aF5.801816214927566
aF5.801816214927566
aF5.809942670484592
aF5.790571604728592
aF5.778889947143006
aF5.774240938304763
aF5.776103136235827
aF5.765504533284198
aF5.765191102784844
aF5.771752601095469
aF5.7804348261772835
aF5.77827132664694
aF5.791793351978915
aF5.779817160932199
aF5.7745515455444085
aF5.776103136235827
aF5.784747833479305
aF5.788736180536365
aF5.787204082795274
aF5.787204082795274
aF5.8027224225111045
aF5.801211619987747
aF5.801211619987747
aF5.8057371971791945
aF5.805436128382701
aF5.797576353942562
aF5.802420444553201
aF5.811140992976701
aF5.821861762721802
aF5.826589903917748
aF5.830415125589567
aF5.830121396699219
aF5.831882477283517
aF5.834810737062605
aF5.834810737062605
aF5.846727750641299
aF5.853638230200579
aF5.853638230200579
aF5.855071922202427
aF5.8522024797744745
aF5.860216260498028
aF5.860786223465865
aF5.870708345972182
aF5.877735781779639
aF5.896879104618114
aF5.895504155962071
aF5.903452669784769
aF5.8998973535824915
aF5.908082938168931
aF5.906723318652891
aF5.8988008622445625
aF5.881928660039675
aF5.886104031450156
aF5.887491956725004
aF5.899349258200177
aF5.884714177161102
aF5.895504155962071
aF5.887769310769217
aF5.887769310769217
aF5.890538628518022
aF5.894953646727139
aF5.888046587909494
aF5.861355861760962
aF5.86220971125072
aF5.860501282589169
aF5.861071083174386
aF5.8763342398543505
aF5.8738065036397495
aF5.881928660039675
aF5.876053695596654
aF5.870708345972182
aF5.872681011118015
aF5.8766147054290405
aF5.859931157146132
aF5.845282036929901
aF5.847305451408376
aF5.838313367613807
aF5.837147186723625
aF5.837438859468874
aF5.840641657373398
aF5.846727750641299
aF5.856503561673865
aF5.8547853481927286
aF5.85821882796062
aF5.859075359062237
aF5.850476853807004
aF5.835395361458093
aF5.838021949864404
aF5.834518296645255
aF5.83568754553614
aF5.842094090453713
aF5.839769183855788
aF5.83129579495516
aF5.829533679961761
aF5.831882477283517
aF5.837438859468874
aF5.848748244906387
aF5.849036553975704
aF5.856503561673865
aF5.857933154483459
aF5.874649792516147
aF5.883879336428045
aF5.892748574168825
aF5.884992302597465
aF5.888046587909494
aF5.871836059652451
aF5.867034468729805
aF5.845282036929901
aF5.849900982786195
aF5.847882818629958
aF5.8524897948173935
aF5.855071922202427
aF5.8562173976999565
aF5.863915226161007
aF5.879135362134062
aF5.87493073085203
aF5.8805329864007
aF5.873525249243295
aF5.887214525734183
aF5.893851718240982
aF5.89467827842029
aF5.8794150432993595
aF5.875211590283732
aF5.8886009116487426
aF5.881928660039675
aF5.879974171074619
aF5.893024474294729
aF5.88638177065483
aF5.883322388488279
aF5.894127314219024
aF5.909712045235723
aF5.909440711629391
aF5.928258471204189
aF5.923720895021463
aF5.916202062607435
aF5.913232698838408
aF5.911880067765139
aF5.914043400139397
aF5.931714542702208
aF5.921846480227112
aF5.925591802957274
aF5.934894195619588
aF5.927192657087842
aF5.925858790009988
aF5.928790952579924
aF5.9207738064852125
aF5.918087077303206
aF5.918625000931025
aF5.926926025970411
aF5.926392550364267
aF5.942799375126701
aF5.949600343009283
aF5.947773858483249
aF5.948034989180646
aF5.949860997252907
aF5.937536205082426
aF5.942011663388452
aF5.937008361311923
aF5.943586466863518
aF5.946467181177246
aF5.942011663388452
aF5.905634290502789
aF5.907267388307226
aF5.911880067765139
aF5.919968545402912
aF5.92479041383999
aF5.907811162110729
aF5.912150740388256
aF5.922114468973189
aF5.911880067765139
aF5.918893854273146
aF5.916471568066552
aF5.914853444736141
aF5.90454407507728
aF5.916471568066552
aF5.912421339767529
aF5.920237037819614
aF5.939118066735773
aF5.94672865326659
aF5.948817972386509
aF5.961005339623274
aF5.954281755980266
aF5.945944031806173
aF5.938591057500914
aF5.94515879423147
aF5.943586466863518
aF5.929589143389895
aF5.929855065476291
aF5.936216072877503
aF5.937536205082426
aF5.929855065476291
aF5.940171252720432
aF5.946205640702368
aF5.954541193003384
aF5.958424693029782
aF5.968963281761469
aF5.97609706997686
aF5.984439932171018
aF5.954281755980266
aF5.967684018442578
aF5.971771913762246
aF5.970496240671785
aF5.972536537222463
aF5.979897910736517
aF5.966146739123692
aF5.96435025461641
aF5.967171854538937
aF5.978125982668802
aF5.975843166205025
aF5.986200717432883
aF5.982676041074902
aF5.988710758911361
aF5.992963423231718
aF5.989963420981715
aF5.989713014069176
aF6.0024044871463165
aF6.004133950208645
aF6.0024044871463165
aF5.996949477338552
aF6.0024044871463165
aF6.001662372084428
aF5.994460056087781
aF6.007829901194246
aF6.008075812913178
aF6.009550014654367
aF6.008813185442595
aF6.008813185442595
aF6.009795503792706
aF6.01224708629051
aF6.014204034077471
aF6.020294928775859
aF6.020294928775859
aF6.020780601442035
aF6.020780601442035
aF6.026348948961484
aF6.028278520230698
aF6.026831690945273
aF6.028278520230698
aF6.028278520230698
aF6.0421576614235
aF6.039301876522142
aF6.032846384886751
aF6.039778407386533
aF6.053969752459379
aF6.047135744478443
aF6.045952732392052
aF6.0340449946431
aF6.009550014654367
aF6.003887067106539
aF6.007091802993681
aF6.007091802993681
aF6.004133950208645
aF6.009304465236313
aF6.011022046323513
aF6.006599434692252
aF6.009795503792706
aF5.998688392197302
aF5.9979435132056915
aF6.0105316098252075
aF5.982423802455833
aF5.986703230006271
aF5.995456568377519
aF5.976350909297934
aF5.986452005284438
aF5.986954391630096
aF5.982928216085695
aF5.977872593588515
aF5.987958407778694
aF5.992214265998528
aF6.004874234017899
aF6.0024044871463165
aF6.014936903293124
aF6.007829901194246
aF6.014204034077471
aF6.013959624935353
aF6.017619504584833
aF6.013959624935353
aF6.011022046323513
aF5.975843166205025
aF5.983936280687191
aF5.980909033168466
aF5.986200717432883
aF5.974572679437764
aF5.967684018442578
aF5.9707515055104405
aF5.981414211254481
aF5.981414211254481
aF5.967427969279741
aF5.9604897428085515
aF5.968707559985366
aF5.9710067052055855
aF5.993213017642099
aF5.986703230006271
aF5.9909644220663
aF5.984943330117717
aF5.983180327520285
aF5.977619140285929
aF5.978379307559327
aF5.978379307559327
aF5.98770749823027
aF5.994709277272871
aF6.005860427391714
aF6.013715156042802
aF6.021023349349527
aF6.018349875889364
aF6.028278520230698
aF6.026590349083357
aF6.02707297457535
aF6.027555367252336
aF6.045005314036012
aF6.031886461606898
aF6.034524036568429
aF6.041919990596475
aF6.051147549269156
aF6.035002849122465
aF6.0416822632686
aF6.024415647247668
aF6.027796476355372
aF6.0330862217988015
aF6.036198878448153
aF6.038109554931026
aF6.0390635259072605
aF6.0340449946431
aF6.003393117973256
aF5.982928216085695
aF5.9796449703026395
aF5.982928216085695
aF5.991964422149633
aF5.990714265717278
aF5.969730054961976
aF5.963836379990508
aF5.966403116512611
aF5.972536537222463
aF5.978125982668802
aF5.974318388273011
aF5.980403599748557
aF5.949339620807311
aF5.93197990027309
aF5.954281755980266
aF5.957649198613251
aF5.954541193003384
aF5.95739056677423
aF5.966146739123692
aF5.9568731023383625
aF5.9327755507593025
aF5.935423156224357
aF5.916202062607435
aF5.92479041383999
aF5.930918047239948
aF5.9207738064852125
aF5.921578419643816
aF5.930918047239948
aF5.9301209168669295
aF5.9274592171320695
aF5.928524747334108
aF5.934629610355443
aF5.940960414934214
aF5.9511632503344565
aF5.948034989180646
aF5.95246380975825
aF5.959457750972896
aF5.960231844676883
aF5.972026853215507
aF5.975081067857458
aF5.975081067857458
aF5.974318388273011
aF5.965890295988552
aF5.9586830575836025
aF5.953503040820864
aF5.967427969279741
aF5.968195920168628
aF5.96665942818901
aF5.947773858483249
aF5.945944031806173
aF5.948557046096705
aF5.950642552587727
aF5.946205640702368
aF5.943848693166319
aF5.947512659578799
aF5.949078830611544
aF5.956355369994414
aF5.977619140285929
aF5.971771913762246
aF5.973300576480311
aF5.9730459615839635
aF5.975843166205025
aF5.992464047441065
aF5.9962033014551555
aF5.989462544437309
aF5.968707559985366
aF5.969730054961976
aF5.973809611869261
aF5.971261839790462
aF5.985949366419872
aF5.983684359789019
aF5.96255053694334
aF5.972026853215507
aF5.989963420981715
aF6.003640123038116
aF6.008813185442595
aF6.004133950208645
aF5.991214515852772
aF5.995954452380834
aF5.9942107727760074
aF5.996700813903228
aF6.005860427391714
aF6.001167322569367
aF5.988961416889864
aF5.977619140285929
aF5.976350909297934
aF5.959199586520707
aF5.964863865310803
aF5.963579343618446
aF5.955059865214182
aF5.954022251632112
aF5.954022251632112
aF5.957907763579139
aF5.968195920168628
aF5.967684018442578
aF5.96255053694334
aF5.966915674186569
aF5.967171854538937
aF5.969218938160663
aF5.989462544437309
aF5.984943330117717
aF5.984943330117717
aF5.973555126564414
aF5.974572679437764
aF5.9710067052055855
aF5.987456525710443
aF5.986452005284438
aF5.991214515852772
aF5.9942107727760074
aF6.000424288479454
aF6.002898924733645
aF6.021993752142805
aF6.01151224241176
aF5.9962033014551555
aF5.998191867857408
aF6.001662372084428
aF5.993462549770655
aF5.998191867857408
aF5.998191867857408
aF6.006599434692252
aF6.007091802993681
aF6.004874234017899
aF5.988710758911361
aF5.991964422149633
aF5.991964422149633
aF5.982928216085695
aF5.977872593588515
aF5.984439932171018
aF5.987205490187598
aF5.994709277272871
aF5.987958407778694
aF5.996700813903228
aF5.998191867857408
aF5.996452088619021
aF5.998936561946683
aF6.004627533634263
aF5.99918467012312
aF6.000919705878737
aF6.001167322569367
aF6.0063531596017325
aF6.007829901194246
aF6.009550014654367
aF6.008567455007644
aF6.011022046323513
aF6.017375928892483
aF6.018593214496234
aF6.03140615420093
aF6.034524036568429
aF6.019565977218857
aF6.022236205774735
aF6.030204375423913
aF6.032126528826872
aF6.032366538428407
aF6.045005314036012
aF6.041919990596475
aF6.023205432892045
aF6.014204034077471
aF6.025382765311443
aF6.032846384886751
aF6.034524036568429
aF6.029001150636708
aF6.027555367252336
aF6.038586654176717
aF6.044056997227153
aF6.044294160752514
aF6.049261645834199
aF6.057252287645985
aF6.051147549269156
aF6.04784488054409
aF6.0416822632686
aF6.049261645834199
aF6.059123195581797
aF6.055143323771165
aF6.033805387597507
aF6.037154673025098
aF6.052324435364745
aF6.0513830373192254
aF6.06425021683363
aF6.0656439452822335
aF6.066340081753089
aF6.068888444072786
aF6.0674992333839795
aF6.072814092804305
aF6.080619458418875
aF6.076035448558252
aF6.076035448558252
aF6.083587835983788
aF6.0867747269123065
aF6.089498287379348
aF6.1023348559394055
aF6.099197246910864
aF6.099870420951769
aF6.101887228358073
aF6.105908681498851
aF6.107468222864288
aF6.111689044414351
aF6.106577354208486
aF6.10412336524692
aF6.108803039525215
aF6.1023348559394055
aF6.10367653771491
aF6.120077614575958
aF6.1110237821656215
aF6.1092475827643655
aF6.07073772800249
aF6.068888444072786
aF6.065876044621792
aF6.07235305084132
aF6.072122450125437
aF6.074656137994746
aF6.075116119603592
aF6.07718342251052
aF6.079017444115844
aF6.087229169092361
aF6.0870019738170456
aF6.083587835983788
aF6.085182550981734
aF6.089271607110894
aF6.091536100832197
aF6.091309882077698
aF6.092666427616949
aF6.071430328745864
aF6.071661089102259
aF6.082675427161366
aF6.056549793763916
aF6.049969276480545
aF6.052089168924417
aF6.040492778175336
aF6.031886461606898
aF6.036198878448153
aF6.036198878448153
aF6.037870919922137
aF6.040968742011071
aF6.047135744478443
aF6.040016587690148
aF6.045952732392052
aF6.042395275776525
aF6.041444479413003
aF6.04381977744191
aF6.040016587690148
aF6.041919990596475
aF6.05584680603725
aF6.055143323771165
aF6.042395275776525
aF6.042632833682381
aF6.049025657632513
aF6.049261645834199
aF6.054674060505866
aF6.038586654176717
aF6.038586654176717
aF6.039778407386533
aF6.026831690945273
aF6.025382765311443
aF6.024899323194219
aF6.021751239712854
aF6.017375928892483
aF6.016401032398013
aF6.020052003959894
aF6.030685260261263
aF6.0407307884109
aF6.0407307884109
aF6.04784488054409
aF6.0445312680446746
aF6.049261645834199
aF6.053264948013429
aF6.05584680603725
aF6.053969752459379
aF6.053264948013429
aF6.067035733955056
aF6.068657042937888
aF6.065876044621792
aF6.0739657686197255
aF6.0739657686197255
aF6.065411792060065
aF6.059823884621325
aF6.060990609756592
aF6.060990609756592
aF6.071891796220597
aF6.068425588244111
aF6.07235305084132
aF6.083587835983788
aF6.085865222529466
aF6.086320078120661
aF6.098972754823267
aF6.085865222529466
aF6.08541015995051
aF6.08541015995051
aF6.080162001869269
aF6.076265148800447
aF6.0844994130751715
aF6.0607573736039315
aF6.053969752459379
aF6.049261645834199
aF6.048789613727251
aF6.050205042130582
aF6.051618469927729
aF6.04784488054409
aF6.052794802259588
aF6.052559646467793
aF6.053969752459379
aF6.050912005751402
aF6.053264948013429
aF6.0454791354142206
aF6.0445312680446746
aF6.048789613727251
aF6.051853847120766
aF6.049733455231958
aF6.053734872834107
aF6.054439346269371
aF6.054674060505866
aF6.055612366931734
aF6.04381977744191
aF6.044768319130293
aF6.049733455231958
aF6.046662707572744
aF6.053499938027435
aF6.066108090103747
aF6.0674992333839795
aF6.067035733955056
aF6.07235305084132
aF6.068194079966656
aF6.072122450125437
aF6.067267510523482
aF6.063785208687608
aF6.065179584930263
aF6.071199515126835
aF6.060057338573594
aF6.054204576929168
aF6.056784013228625
aF6.058422015232863
aF6.047608557726022
aF6.053264948013429
aF6.049025657632513
aF6.053499938027435
aF6.051618469927729
aF6.040968742011071
aF6.037154673025098
aF6.038348133006832
aF6.034524036568429
aF6.03572063836252
aF6.03667688992953
aF6.038109554931026
aF6.03140615420093
aF6.0333260012029
aF6.030925615988895
aF6.030204375423913
aF6.032606490439157
aF6.032366538428407
aF6.0335657231266175
aF6.038348133006832
aF6.034524036568429
aF6.024415647247668
aF6.026348948961484
aF6.028519455058993
aF6.04310778025982
aF6.045242252788453
aF6.0454791354142206
aF6.049261645834199
aF6.046189446797229
aF6.042395275776525
aF6.0445312680446746
aF6.052324435364745
aF6.049497578358592
aF6.054674060505866
aF6.053499938027435
aF6.0588895234227715
aF6.075575889726634
aF6.07970433595739
aF6.07993319509559
aF6.071891796220597
aF6.07718342251052
aF6.076265148800447
aF6.082447194819853
aF6.085182550981734
aF6.082447194819853
aF6.0748861552470546
aF6.071430328745864
aF6.072814092804305
aF6.055612366931734
aF6.056549793763916
aF6.054439346269371
aF6.043345168984971
aF6.046189446797229
aF6.044294160752514
aF6.043582501370088
aF6.046662707572744
aF6.04784488054409
aF6.051147549269156
aF6.047608557726022
aF6.037393478996382
aF6.03476347150313
aF6.041919990596475
aF6.039778407386533
aF6.03667688992953
aF6.039540170339545
aF6.045242252788453
aF6.049497578358592
aF6.049733455231958
aF6.049261645834199
aF6.045242252788453
aF6.04381977744191
aF6.050205042130582
aF6.05584680603725
aF6.061456918928017
aF6.060290738037835
aF6.064947323867785
aF6.064017739789691
aF6.075575889726634
aF6.079017444115844
aF6.079017444115844
aF6.073044534100405
aF6.069813513518959
aF6.073044534100405
aF6.079475424430695
aF6.094697801749634
aF6.09807428216624
aF6.0888180923638915
aF6.0870019738170456
aF6.082447194819853
aF6.081076705797669
aF6.07718342251052
aF6.077642243349034
aF6.076265148800447
aF6.081076705797669
aF6.0764947962925575
aF6.079475424430695
aF6.07718342251052
aF6.07993319509559
aF6.07718342251052
aF6.061689991997479
aF6.065411792060065
aF6.0739657686197255
aF6.089951493822636
aF6.095374010498493
aF6.095374010498493
aF6.091309882077698
aF6.091762268423346
aF6.094021135433074
aF6.098972754823267
aF6.106354512981937
aF6.102558594613569
aF6.096725057765475
aF6.100094711633431
aF6.104793232414985
aF6.117215752413542
aF6.12774216540053
aF6.12665081966305
aF6.138158926258786
aF6.1390221114655965
aF6.137727054086234
aF6.132747071941871
aF6.13469871519389
aF6.128178370423804
aF6.12665081966305
aF6.132964109381682
aF6.148254597872171
aF6.148040854150079
aF6.1454723595873295
aF6.13880638500591
aF6.14010004624713
aF6.1366465569524795
aF6.141392036090933
aF6.15209419303295
aF6.15888394964983
aF6.156978985585555
aF6.161629173631305
aF6.152945438030085
aF6.147613229597914
aF6.142897250868192
aF6.15038952609554
aF6.15038952609554
aF6.153583396584417
aF6.135131896920395
aF6.130356545974601
aF6.132095676847728
aF6.1452580202873985
aF6.137078895912954
aF6.139884552226255
aF6.1531581361059695
aF6.152732694704104
aF6.151242222800372
aF6.157826084323207
aF6.141176820336309
aF6.126432407518466
aF6.129485845005356
aF6.128178370423804
aF6.120077614575958
aF6.122931309850288
aF6.122273487219395
aF6.123150487933357
aF6.1316611776012655
aF6.142037405587356
aF6.141176820336309
aF6.148895555056811
aF6.1450436350362825
aF6.144614726601657
aF6.149109116189496
aF6.16835471390473
aF6.1812581187406375
aF6.18476725641117
aF6.183117431330821
aF6.193588731198116
aF6.1886747163956874
aF6.198275443801294
aF6.201320204095256
aF6.205769149754987
aF6.2007119932300805
aF6.203344906143481
aF6.198072129782092
aF6.195425279005418
aF6.214408078419525
aF6.2197946251094915
aF6.220590170099739
aF6.22217936391851
aF6.2314652154886145
aF6.239300711012564
aF6.253059284796445
aF6.26530121273771
aF6.265871392359733
aF6.24436105657154
aF6.220788957497273
aF6.212405674866992
aF6.200306313711332
aF6.224162311227003
aF6.2176036074019905
aF6.194609451915502
aF6.193384461970565
aF6.201117508239693
aF6.214208018400852
aF6.220788957497273
aF6.220788957497273
aF6.2211864137823145
aF6.2302845778072
aF6.23539063760472
aF6.239690878789655
aF6.247849432201994
aF6.247849432201994
aF6.247849432201994
aF6.2645404671704
aF6.258624983838966
aF6.259390241194085
aF6.289901082457623
aF6.282640508814019
aF6.2902720023431815
aF6.289901082457623
aF6.295081482572068
aF6.299684270777311
aF6.3202285802858755
aF6.320048610880189
aF6.313004420278385
aF6.291939441358515
aF6.291198700583904
aF6.314272421535137
aF6.3157195997906035
aF6.311553304478671
aF6.315177153343887
aF6.3216671707156
aF6.3178864478756935
aF6.320048610880189
aF6.325433653511077
aF6.324179734851483
aF6.338240658867467
aF6.333457232260573
aF6.342473469420088
aF6.3377102955561755
aF6.340711975217918
aF6.340711975217918
aF6.303168275401672
aF6.300235184389629
aF6.311190196268436
aF6.304083104849794
aF6.310463584065713
aF6.288601778330518
aF6.281518803704818
aF6.284134161070802
aF6.283387613817017
aF6.29858153219837
aF6.312823145919147
aF6.312823145919147
aF6.311371766854499
aF6.30463160106978
aF6.3059102568289775
aF6.3048143663083405
aF6.325075551448163
aF6.314091376907141
aF6.314815358839217
aF6.327579577081353
aF6.330433663927782
aF6.335586024975094
aF6.336825731146441
aF6.313729189289999
aF6.306822582410002
aF6.2882302382928055
aF6.290642784698189
aF6.280395838960195
aF6.291754307598845
aF6.292494637079263
aF6.296003736626186
aF6.309918278226516
aF6.30463160106978
aF6.313004420278385
aF6.316261752148692
aF6.309554575731145
aF6.304265970352727
aF6.304083104849794
aF6.299684270777311
aF6.307187279715285
aF6.326149473155099
aF6.325075551448163
aF6.332035515298156
aF6.327758196354847
aF6.347739411025374
aF6.360784208579793
aF6.367500844525334
aF6.366126746061101
aF6.370585679876545
aF6.366298611662624
aF6.375365477300306
aF6.371611847231857
aF6.3768970014659105
aF6.379444340875127
aF6.384857073981877
aF6.385363018844681
aF6.3818160174060985
aF6.390408438225881
aF6.393256249849838
aF6.396262766228443
aF6.417222358483909
aF6.431492099565257
aF6.409845880482693
aF6.413786772282569
aF6.45110213410454
aF6.42648845745769
aF6.431170038370847
aF6.442699389460335
aF6.439510102751265
aF6.4518912132901205
aF6.477126197210423
aF6.480044561926653
aF6.481423978192588
aF6.490875268058674
aF6.492845712045973
aF6.51471269087253
aF6.522974762066806
aF6.509514015963292
aF6.517671272912275
aF6.542183734535649
aF6.557204401751364
aF6.562585326657728
aF6.567796973076092
aF6.516488890273786
aF6.5141199226275495
aF6.529856698591778
aF6.519884479274924
aF6.478663240242817
aF6.484177115447046
aF6.45661265737732
aF6.479584333338335
aF6.454412090629509
aF6.4600609366562365
aF6.462717395754149
aF6.4783560205783415
aF6.471727865291332
aF6.474199290707447
aF6.459904454377535
aF6.431492099565257
aF6.427782118698911
aF6.457397401983236
aF6.452364362104247
aF6.438871023004318
aF6.4245448222491195
aF6.410174881966167
aF6.398594934535208
aF6.405558981914201
aF6.401253626696201
aF6.3298991427569264
aF6.296556681069359
aF6.317345175873304
aF6.340182921330258
aF6.358362062066888
aF6.333101992469981
aF6.329186003129627
aF6.346863677542663
aF6.361820478102579
aF6.349138991379798
aF6.367672474149028
aF6.358535267228834
aF6.360784208579793
aF6.357668941262844
aF6.363372871687304
aF6.392252065665035
aF6.419343250053046
aF6.422272462887942
aF6.4245448222491195
aF6.426002902701853
aF6.432940092739179
aF6.441743671005939
aF6.443654195389016
aF6.430203231979072
aF6.431974996958947
aF6.460217394452065
aF6.468629969381338
aF6.490875268058674
aF6.498733854671196
aF6.462873438510181
aF6.441743671005939
aF6.42648845745769
aF6.442062345323486
aF6.423733857968197
aF6.42389610344596
aF6.400423544470402
aF6.413458957167357
aF6.418691146997659
aF6.4355091371836215
aF6.439989144676593
aF6.454097328272487
aF6.443972261549457
aF6.446988855088883
aF6.4698702796178615
aF6.459904454377535
aF6.466922027036182
aF6.4692503167957724
aF6.470489858324175
aF6.45833828334479
aF6.453939909932926
aF6.451575656329472
aF6.439829489531367
aF6.441265469036198
aF6.435829804173703
aF6.430847873419607
aF6.435669483532077
aF6.418364935936212
aF6.40902290290353
aF6.420646181833463
aF6.419506209395052
aF6.43068675201428
aF6.431008968869009
aF6.42648845745769
aF6.426973776564523
aF6.433261584463537
aF6.418038618426381
aF6.40902290290353
aF6.417548942418882
aF6.427297191832543
aF6.429074108542713
aF6.436951329565632
aF6.438071598547322
aF6.439350371100098
aF6.446988855088883
aF6.420320608006722
aF6.407374913077685
aF6.407374913077685
aF6.36784407432105
aF6.3707567809121235
aF6.360784208579793
aF6.3531519078702505
aF6.347214062970213
aF6.361302477572996
aF6.3597468640884305
aF6.349313801274483
aF6.350362019399812
aF6.353326017734014
aF6.370585679876545
aF6.375024819828097
aF6.36664225427769
aF6.373661028276792
aF6.379783496381176
aF6.397596099759307
aF6.3875524934035495
aF6.392586905782009
aF6.387720716130836
aF6.352455165114317
aF6.327400925897314
aF6.332035515298156
aF6.329007638730688
aF6.350187392664015
aF6.348089489796672
aF6.343880434126331
aF6.345636360828596
aF6.347214062970213
aF6.35749558597074
aF6.379105070303594
aF6.379783496381176
aF6.373319789577012
aF6.37519516307014
aF6.373490423482384
aF6.381646798351629
aF6.378935391843868
aF6.36199308533525
aF6.351583553449269
aF6.362510728345687
aF6.3799530310090296
aF6.382999749682648
aF6.393757964050511
aF6.394092300395986
aF6.393757964050511
aF6.405724202897641
aF6.420157781335353
aF6.4256790685021326
aF6.436310611939997
aF6.4337436283388625
aF6.432457661275292
aF6.418364935936212
aF6.421459652959424
aF6.438231534573252
aF6.441265469036198
aF6.430847873419607
aF6.427943708745316
aF6.422272462887942
aF6.4261647804844815
aF6.42080892900609
aF6.431170038370847
aF6.430203231979072
aF6.432779308109843
aF6.439190613930656
aF6.4434951243634675
aF6.446988855088883
aF6.458024754575957
aF6.45629858702298
aF6.449838310871549
aF6.452994879149095
aF6.455512979315044
aF6.466922027036182
aF6.469715324941794
aF6.4622491213367885
aF6.458965046135599
aF6.443336028030302
aF6.437431598525476
aF6.435188367333237
aF6.435348765120091
aF6.434546518787453
aF6.44046795723063
aF6.4348674945565385
aF6.437751649736401
aF6.4209716496963845
aF6.421297011664441
aF6.416241966248519
aF6.421459652959424
aF6.427943708745316
aF6.426002902701853
aF6.426650256665227
aF6.430847873419607
aF6.433582972864182
aF6.435829804173703
aF6.44046795723063
aF6.448572888367985
aF6.4548840484767025
aF6.455355783684759
aF6.438231534573252
aF6.430525604644662
aF6.400423544470402
aF6.410010394754677
aF6.402746040537586
aF6.406549898593137
aF6.406714955950943
aF6.411325535499879
aF6.4129670329137705
aF6.438871023004318
aF6.437271534499525
aF6.434064861878406
aF6.429558174707874
aF6.439350371100098
aF6.441265469036198
aF6.453309988652254
aF6.448572888367985
aF6.450786328006857
aF6.459434860567543
aF6.469095266016332
aF6.462717395754149
aF6.470489858324175
aF6.462561328644976
aF6.462405237175058
aF6.464588303689961
aF6.479737766403461
aF6.466144724237619
aF6.47327322180348
aF6.470644693038427
aF6.473582006737229
aF6.476972362889683
aF6.4734276261888715
aF6.487227293196927
aF6.501139509116577
aF6.492088308389376
aF6.492845712045973
aF6.49767955831629
aF6.49586960307105
aF6.496473285552407
aF6.504587529922656
aF6.5039887275095545
aF6.485703367269574
aF6.487379558138218
aF6.515305107951467
aF6.51129946503156
aF6.5237091382472725
aF6.52561599617747
aF6.491026978595262
aF6.494661143709481
aF6.490268195646648
aF6.462092981122559
aF6.464899781655413
aF6.449996376152838
aF6.449522105335317
aF6.465522446681758
aF6.472964341492144
aF6.4731187935736925
aF6.4752786216271225
aF6.4703349996324215
aF6.464276728675756
aF6.45629858702298
aF6.467388118864708
aF6.470489858324175
aF6.482495543545793
aF6.479891175930494
aF6.480811139196849
aF6.487379558138218
aF6.494812281018014
aF6.48494053253886
aF6.485703367269574
aF6.488748900307305
aF6.494509983555011
aF6.4972273765315105
aF6.485245736264714
aF6.493602542476407
aF6.497076603821085
aF6.486618001479677
aF6.4949633954875114
aF6.497378126512952
aF6.5093650845459345
aF6.511596730194272
aF6.509811812272819
aF6.507725373363912
aF6.508769136971682
aF6.513823406687646
aF6.509067155152996
aF6.516784617024425
aF6.529418838262226
aF6.52649485957079
aF6.530731844505276
aF6.530440214290318
aF6.520621127558696
aF6.5267876424743605
aF6.539007753809136
aF6.5321887212198355
aF6.524149505226866
aF6.525176274660674
aF6.509514015963292
aF6.508620094568842
aF6.521210055726484
aF6.5156011849336455
aF6.509960677178192
aF6.503389566317273
aF6.510109519926104
aF6.521945728532414
aF6.533352696325791
aF6.531751881023592
aF6.524883019526607
aF6.515453157400254
aF6.498583308942647
aF6.4990348781533
aF6.506680519175266
aF6.5018900908526325
aF6.499486243541238
aF6.491633590685444
aF6.4829544345672305
aF6.485550846869675
aF6.494358800547692
aF6.487379558138218
aF6.489204931325317
aF6.4881405352695305
aF6.480044561926653
aF6.48188336109631
aF6.48494053253886
aF6.484177115447046
aF6.483871585349955
aF6.479891175930494
aF6.483565961875693
aF6.492845712045973
aF6.508172834032128
aF6.504737174517024
aF6.505634572124363
aF6.499787040655854
aF6.489204931325317
aF6.467698726104354
aF6.474662003756499
aF6.476202836110654
aF6.470489858324175
aF6.465989191147641
aF6.470644693038427
aF6.476664623235
aF6.48402436206708
aF6.483718785288537
aF6.482495543545793
aF6.4806578707468585
aF6.4734276261888715
aF6.47774129795256
aF6.480351263355219
aF6.474816193873218
aF6.460999316456092
aF6.461624414147958
aF6.465989191147641
aF6.471109053390398
aF6.4760488596687455
aF6.474816193873218
aF6.480044561926653
aF6.481577129276431
aF6.470644693038427
aF6.4692503167957724
aF6.484482552224008
aF6.482648530618684
aF6.48981264936286
aF6.491633590685444
aF6.49329987903584
aF6.496925808374822
aF6.501439809419134
aF6.497378126512952
aF6.49586960307105
aF6.4990348781533
aF6.509067155152996
aF6.514860828047825
aF6.525469443821378
aF6.522239846181593
aF6.522680860521707
aF6.508172834032128
aF6.491633590685444
aF6.487075005067492
aF6.492391338694725
aF6.491785186228825
aF6.496473285552407
aF6.490571777919774
aF6.496020557860377
aF6.499486243541238
aF6.510704669474991
aF6.505634572124363
aF6.501289670540389
aF6.506381788777226
aF6.491330330637631
aF6.489052944091952
aF6.507874549167873
aF6.504886796721238
aF6.500688889506999
aF6.495114487124877
aF6.465211162632552
aF6.470025210286697
aF6.48280149429011
aF6.4817302569086115
aF6.483565961875693
aF6.483718785288537
aF6.48981264936286
aF6.487836213903822
aF6.502939959715469
aF6.500238066747841
aF6.494661143709481
aF6.494056365946869
aF6.497378126512952
aF6.49888437773914
aF6.510704669474991
aF6.509067155152996
aF6.509067155152996
aF6.519442229691538
aF6.523415452488921
aF6.5392968965030684
aF6.5497937935179396
aF6.5495076704830835
aF6.554218263734332
aF6.558906771292869
aF6.555783543313972
aF6.556352128972503
aF6.5594735844014265
aF6.56187896228563
aF6.568077911411976
aF6.579528951214775
aF6.581332378213926
aF6.58851373762259
aF6.591536548388167
aF6.587550014824796
aF6.582302108843358
aF6.588100827287083
aF6.588926477533519
aF6.598509028614515
aF6.610022870676855
aF6.607865663422611
aF6.585343726009258
aF6.587687746386201
aF6.580361706294128
aF6.5890640196560115
aF6.607190580699342
aF6.59455024929927
aF6.588651336522016
aF6.602723568195243
aF6.607865663422611
aF6.612847161438617
aF6.616600517051383
aF6.617402977974478
aF6.625259733217656
aF6.622204267539311
aF6.627512135627354
aF6.6309472030822345
aF6.640921039043194
aF6.613518437559682
aF6.624198021107306
aF6.625127080833035
aF6.635421483477155
aF6.645740953278934
aF6.667846981335197
aF6.665683717782408
aF6.656340845700898
aF6.655054175425602
aF6.664281461194676
aF6.669371178251643
aF6.691959665330466
aF6.685486345078588
aF6.692083742506628
aF6.71210529197685
aF6.713806385947203
aF6.718046503754165
aF6.717925606697861
aF6.67228607797729
aF6.672792150862585
aF6.685361446558473
aF6.663004973913869
aF6.664281461194676
aF6.667338398997471
aF6.652863029353347
aF6.649761450232181
aF6.677587112730963
aF6.683736344631973
aF6.687981045137532
aF6.712713157778802
aF6.710401299354221
aF6.6941907024482505
aF6.67405621372841
aF6.673929879321067
aF6.657882667925903
aF6.662877235521921
aF6.655440350367647
aF6.667592722498332
aF6.673424382027351
aF6.665428908251153
aF6.673424382027351
aF6.677838843380498
aF6.677335318697152
aF6.6793478979928285
aF6.685236532436769
aF6.674813885187817
aF6.669371178251643
aF6.675570983015779
aF6.665683717782408
aF6.672159519728687
aF6.681732586917084
aF6.676201460307957
aF6.680227129350103
aF6.697774714194209
aF6.694685813239402
aF6.694562058521095
aF6.6941907024482505
aF6.710888450746147
aF6.714777141999654
aF6.725393721388161
aF6.725393721388161
aF6.7489939865971955
aF6.750165358407366
aF6.756350824822904
aF6.75110146893676
aF6.75343791859778
aF6.771706434518861
aF6.764231268896094
aF6.788183143841292
aF6.796711980188812
aF6.7933540186721615
aF6.788070436036158
aF6.773880970425809
aF6.774909365648708
aF6.768378262513495
aF6.78094411211575
aF6.757746011655429
aF6.744412480785964
aF6.776278916193751
aF6.789984743247629
aF6.809260032233038
aF6.814652660719813
aF6.818049365897644
aF6.824373670043086
aF6.82001636467413
aF6.8228507718916935
aF6.806165423220504
aF6.806829360392176
aF6.79346613258001
aF6.785135565434226
aF6.786716950605081
aF6.799167338565238
aF6.810473156175584
aF6.824264968483112
aF6.820234681452642
aF6.805611805313434
aF6.798609831721339
aF6.804392765986984
aF6.799835936762642
aF6.804170962725567
aF6.802505868263039
aF6.808708125380903
aF6.818158745170381
aF6.8435367066554855
aF6.841188034710024
aF6.850867416775088
aF6.838298013966916
aF6.83130610681873
aF6.855514167136446
aF6.859509966354143
aF6.871713507634872
aF6.880384082186005
aF6.883052666341765
aF6.863385331246197
aF6.866308089067964
aF6.872542523226392
aF6.876986745310501
aF6.881616621372443
aF6.86839055545986
aF6.872542523226392
aF6.875438677505594
aF6.888878223212448
aF6.898209866138606
aF6.911747300251674
aF6.9018378052181
aF6.88407715162756
aF6.84300340175244
aF6.8074928570437425
aF6.813114874828016
aF6.816516798547866
aF6.809480709713797
aF6.820125529021163
aF6.839904612073963
aF6.84609261859003
aF6.828062510072889
aF6.831629888592646
aF6.8160784904102325
aF6.77090409623294
aF6.7823054282647215
aF6.791109096862817
aF6.801394262990727
aF6.816188085456647
aF6.8138840633720665
aF6.811464618663851
aF6.80550104494338
aF6.826545223556594
aF6.821761565815161
aF6.818596142662319
aF6.81783057145415
aF6.829361211554125
aF6.8289284984361664
aF6.84300340175244
aF6.8074928570437425
aF6.8199071884089415
aF6.814762412132972
aF6.815201297371529
aF6.799167338565238
aF6.78332520060396
aF6.77719090896102
aF6.787281125514262
aF6.787957715526542
aF6.766882720100721
aF6.759719200154732
aF6.742290839254605
aF6.740401149309969
aF6.751335359710835
aF6.75821064170212
aF6.770674738433769
aF6.7616885028473535
aF6.762960694078903
aF6.768837979795468
aF6.7823054282647215
aF6.777304849598072
aF6.758326765490208
aF6.756932389247553
aF6.759255270663693
aF6.779921907472252
aF6.804614520062624
aF6.803061207867471
aF6.805279487392901
aF6.820234681452642
aF6.821325550983749
aF6.818814769685489
aF6.828062510072889
aF6.827954208778582
aF6.807161163746434
aF6.790996718371941
aF6.7722791394196875
aF6.7695271596986935
aF6.78716831599302
aF6.78105762593618
aF6.775023566528179
aF6.775137754367298
aF6.762498266324998
aF6.77719090896102
aF6.804836224974296
aF6.792232187726598
aF6.761804223497833
aF6.765154310383115
aF6.753904554163877
aF6.756234471340894
aF6.767573248382274
aF6.7644621091556605
aF6.773080375655535
aF6.78094411211575
aF6.787732236382407
aF6.79760553548115
aF6.803949110256548
aF6.776506992372183
aF6.783211943907537
aF6.772622604990641
aF6.7852486044893405
aF6.81355448358331
aF6.831845684881787
aF6.822633025565302
aF6.826219790999619
aF6.836796190041643
aF6.833678075585821
aF6.834108738813838
aF6.836044431428137
aF6.818814769685489
aF6.816297668493302
aF6.819798000222995
aF6.830442175879467
aF6.847580555946067
aF6.868702551718436
aF6.860139425040474
aF6.876367805740505
aF6.864952156656828
aF6.860034542770725
aF6.856146145248907
aF6.86171134048073
aF6.863907879201861
aF6.8494903708501615
aF6.8218705398249675
aF6.820889345960475
aF6.8228507718916935
aF6.83227713780618
aF6.82730415458451
aF6.818268112480601
aF6.795482036499351
aF6.810583367229864
aF6.804281870505861
aF6.812565091978388
aF6.795482036499351
aF6.771248034327474
aF6.772050096816762
aF6.76596127336425
aF6.746059539981839
aF6.751686093332248
aF6.70808408385307
aF6.687607236647726
aF6.69171146478315
aF6.680729200403702
aF6.651830238143548
aF6.671399833695697
aF6.671526488119272
aF6.662877235521921
aF6.684986657373001
aF6.699746615252198
aF6.711131937477322
aF6.710888450746147
aF6.7051493788854755
aF6.693075806080056
aF6.712834686611667
aF6.7156257811970965
aF6.720581971457158
aF6.724913586941295
aF6.70294268435265
aF6.673171537525372
aF6.671273163228746
aF6.672918629076881
aF6.672792150862585
aF6.688728243179767
aF6.680854678790215
aF6.643008177812852
aF6.619139437370265
aF6.601637644374671
aF6.615127664137342
aF6.644830857656083
aF6.63948360005018
aF6.648855007955808
aF6.6555690422151965
aF6.725033642166843
aF6.714777141999654
aF6.771018755408666
aF6.759603237958279
aF6.78105762593618
aF6.77616485859454
aF6.762382625966384
aF6.764346695686781
aF6.769871571618751
aF6.7655002314012656
aF6.754254387996376
aF6.7633073746162635
aF6.721907512411624
aF6.708816416364745
aF6.7158681173184815
aF6.717199917261079
aF6.756234471340894
aF6.777532691932163
aF6.7823054282647215
aF6.718409107251218
aF6.736611022778308
aF6.711983674463778
aF6.723471798874642
aF6.724553334760875
aF6.6670840107997105
aF6.650149674112825
aF6.661598953358855
aF6.66581109820421
aF6.640398572991602
aF6.579667791895317
aF6.550365794105536
aF6.52458967836874
aF6.599189995613932
aF6.561030665896573
aF6.585481761760737
aF6.605027248325085
aF6.59741851596555
aF6.576469569048224
aF6.585895754728769
aF6.582302108843358
aF6.581886625145115
aF6.601909235902685
aF6.592496438760121
aF6.587412264290795
aF6.602452197772954
aF6.60907966505549
aF6.588788916490589
aF6.564419542339522
aF6.551223181983152
aF6.586447478880696
aF6.60435024606512
aF6.594823772276905
aF6.595097220460179
aF6.596190266067024
aF6.599053839306281
aF6.610157541742979
aF6.683986532274009
aF6.667338398997471
aF6.688230173190639
aF6.695798917058491
aF6.698021414577845
aF6.696046105293591
aF6.703678790385153
aF6.637651138804425
aF6.636602508481567
aF6.638698670653521
aF6.636733647423464
aF6.608810014251645
aF6.6261878075302105
aF6.631474629254798
aF6.6369958737262635
aF6.65260493153284
aF6.687108607866515
aF6.694314503129313
aF6.713684975153634
aF6.712591614174885
aF6.72154617546099
aF6.740992061104035
aF6.744530217879171
aF6.720943656915318
aF6.729585093310658
aF6.733044685189517
aF6.721666635618939
aF6.7269525681574525
aF6.736373662226517
aF6.767918333794338
aF6.7722791394196875
aF6.761804223497833
aF6.752854317764174
aF6.779808264651515
aF6.7655002314012656
aF6.773880970425809
aF6.739691593934882
aF6.7323298888760235
aF6.729106967554478
aF6.730062990571844
aF6.738863142499843
aF6.746294612855512
aF6.703678790385153
aF6.7015917477026115
aF6.694066886438683
aF6.687731855004171
aF6.7039240387003005
aF6.7350671711564205
aF6.723952625906384
aF6.71332065430438
aF6.737915499690239
aF6.738626315974166
aF6.747938577528252
aF6.794026513653794
aF6.790097235513905
aF6.79413855219517
aF6.782532134228059
aF6.773423566186845
aF6.803505257608338
aF6.825785716114886
aF6.79883287175795
aF6.7903221820900415
aF6.797382221500767
aF6.804503649171663
aF6.807050574860505
aF6.8082663804813945
aF6.791783102729716
aF6.792344427470809
aF6.814103722900682
aF6.840332602664703
aF6.837869151517971
aF6.844389403360317
aF6.841615476477592
aF6.84609261859003
aF6.86828653507177
aF6.875851729969129
aF6.877502235811116
aF6.900227012561346
aF6.884486652042782
aF6.866724929424145
aF6.850549805211358
aF6.838083605732818
aF6.834539216650878
aF6.844708977264502
aF6.826545223556594
aF6.8082663804813945
aF6.802172516407071
aF6.811464618663851
aF6.835184586147301
aF6.840760410157858
aF6.815310988590857
aF6.793129753140834
aF6.793802398906106
aF6.810473156175584
aF6.8239387928890265
aF6.829253050827179
aF6.819470364114565
aF6.815968883351428
aF6.784796371581689
aF6.83065822859717
aF6.852876617472147
aF6.8588801112
aF6.841615476477592
aF6.822524134619476
aF6.821543582163072
aF6.836796190041643
aF6.824047529908652
aF6.824699703844811
aF6.813004942436327
aF6.815639990074331
aF6.82045295057934
aF6.796935443876893
aF6.791783102729716
aF6.790884327250722
aF6.763422908092217
aF6.770330603070465
aF6.7782159076271515
aF6.773880970425809
aF6.777532691932163
aF6.780603493321654
aF6.782532134228059
aF6.782532134228059
aF6.787619477742156
aF6.770674738433769
aF6.762845107186329
aF6.765615511821014
aF6.762382625966384
aF6.778898656857133
aF6.78173843839865
aF6.7912214627261855
aF6.8069399737433205
aF6.816735880594968
aF6.808045434833125
aF6.786265381394427
aF6.788408521349571
aF6.780717045811413
aF6.780035537379766
aF6.785587645007929
aF6.786039520298041
aF6.796711980188812
aF6.7977171737732
aF6.8121250479668864
aF6.809701338506749
aF6.81783057145415
aF6.8120150067013014
aF6.815201297371529
aF6.821325550983749
aF6.824699703844811
aF6.828279077480341
aF6.834646807161499
aF6.820125529021163
aF6.822197390620491
aF6.829901839777273
aF6.841722308377699
aF6.856356715896137
aF6.862967096192003
aF6.859090107000856
aF6.847474348097207
aF6.850020228330899
aF6.850443912269023
aF6.8656825025602295
aF6.883155162113904
aF6.880178511211903
aF6.876574161498562
aF6.867349864347098
aF6.867453982208612
aF6.859090107000856
aF6.859090107000856
aF6.8494903708501615
aF6.853615832881489
aF6.853299093186078
aF6.8494903708501615
aF6.8424698122835075
aF6.840332602664703
aF6.830442175879467
aF6.834108738813838
aF6.832816192317643
aF6.835077053484151
aF6.837654651302648
aF6.838512376239977
aF6.8228507718916935
aF6.817502290004575
aF6.826762119772606
aF6.834969509256484
aF6.841935937944843
aF6.839262282536836
aF6.83979758579891
aF6.828387343598564
aF6.83238497195736
aF6.831737792558221
aF6.834969509256484
aF6.834431614563294
aF6.8251342502938
aF6.82556860799419
aF6.80771392480191
aF6.809149675228015
aF6.810142450115136
aF6.814433121750764
aF6.8111342403777115
aF6.821761565815161
aF6.829036694270732
aF6.838190815596228
aF6.837118199382696
aF6.842683282238422
aF6.843856553131905
aF6.850443912269023
aF6.850761557462016
aF6.852770970649377
aF6.853299093186078
aF6.855830206117218
aF6.8540379964761495
aF6.83979758579891
aF6.830334132013552
aF6.833462674400282
aF6.837869151517971
aF6.858565034791365
aF6.85835492868701
aF6.85761920948834
aF6.865473886725531
aF6.862967096192003
aF6.860454005864124
aF6.860244296311086
aF6.8493843656558075
aF6.848005274576363
aF6.84587987526405
aF6.855092626398831
aF6.848960232471631
aF6.852453963197048
aF6.835399616789997
aF6.839690548068008
aF6.837332814685591
aF6.8434300684255795
aF6.843323418822748
aF6.858565034791365
aF6.8456670866687155
aF6.848642014489631
aF6.845986252584505
aF6.847792937809454
aF6.854670907889681
aF6.861082870783706
aF6.850867416775088
aF6.852453963197048
aF6.858039686736205
aF6.881411303642535
aF6.892946163328429
aF6.899420642192079
aF6.898411763978984
aF6.899924699866949
aF6.894973944617404
aF6.890303885368382
aF6.902139540196502
aF6.912046060399294
aF6.90113340267325
aF6.899823908655857
aF6.9136379421402925
aF6.917903610033952
aF6.914035516939287
aF6.91085048388944
aF6.903948040639183
aF6.912046060399294
aF6.913836749298005
aF6.898714534329988
aF6.893656354602635
aF6.8991180855864735
aF6.893554929580995
aF6.892844666246383
aF6.899017213038852
aF6.905452629919462
aF6.894568717177961
aF6.908255154023788
aF6.908854674425438
aF6.922742408790385
aF6.943315454380688
aF6.949568781795548
aF6.950431553262574
aF6.954829686368066
aF6.953684210870537
aF6.957307057811385
aF6.962243464266207
aF6.95291983093651
aF6.950144045473924
aF6.957497370876951
aF6.954448006974119
aF6.958923565556536
aF6.954543440480896
aF6.958068092855726
aF6.956735901203759
aF6.959018572919678
aF6.943990771564232
aF6.939641467844459
aF6.933910236458988
aF6.935856709093012
aF6.942156705699469
aF6.948609272990403
aF6.9492810258106354
aF6.9616751209715675
aF6.9845311177841864
aF6.98813639092895
aF6.992188334956967
aF6.999331222469347
aF6.998874872349621
aF7.000060949766163
aF7.008053000297501
aF7.005154184969269
aF7.00397413672268
aF7.019743780930185
aF7.023491777464733
aF7.027846759239957
aF7.035356623575859
aF7.030326831370318
aF7.032359442206668
aF7.0482126316773925
aF7.0534128514045005
aF7.05444965813294
aF7.061763091461485
aF7.073439194623068
aF7.037203346169024
aF7.06313377616165
aF7.0597894348376355
aF7.069278713138808
aF7.0866543189747615
aF7.094151854929231
aF7.046212022129153
aF7.0493416430440075
aF7.035092527443332
aF7.025360521056401
aF7.018312269546781
aF7.022244005466835
aF7.012025200157934
aF7.012745726173074
aF7.01472449997938
aF7.013465733404251
aF7.022422353960263
aF6.997961546868286
aF7.000243298417288
aF7.01301578963963
aF6.994024714134313
aF6.979796831847108
aF6.983975304893546
aF6.994116444630181
aF7.0078720703169095
aF7.004246579170898
aF6.995216554752131
aF6.990256500493881
aF6.996772975299789
aF6.999604932612016
aF6.996772975299789
aF7.016609683894219
aF7.0184913205768025
aF7.02749196058447
aF7.020637436038809
aF7.036851852316547
aF7.046995346073642
aF7.025982660346787
aF7.020726757641298
aF7.030857476116121
aF7.027225778958304
aF7.02749196058447
aF7.029176134186477
aF7.028821806961581
aF7.009860501919291
aF6.9930151229329605
aF6.987213200316853
aF6.995857727203683
aF6.9964069765767
aF6.98988810852066
aF6.9877672169515215
aF6.979424565672496
aF6.979703778294721
aF6.9852717214099656
aF6.981377418852751
aF7.002064958452879
aF7.009408932708637
aF6.965457989110426
aF6.951485041843462
aF6.970730078143525
aF6.967438281143311
aF6.968191647785968
aF6.968850378341948
aF6.977467891393437
aF6.982491625096154
aF6.9957661563048505
aF6.995308175989998
aF7.0015188087943
aF7.007510112119129
aF7.001336692603667
aF7.002792694316889
aF7.021708769057982
aF7.012205380338601
aF7.002428892584818
aF6.99365770798284
aF6.992372124702016
aF7.0067858024450915
aF7.017954071280212
aF7.0136456542395695
aF7.016340589395578
aF7.03191792160256
aF7.02651561470298
aF7.027935439238242
aF7.033770999564997
aF7.02054810645726
aF7.010853236985704
aF7.006514051005401
aF7.0034290290504195
aF7.001700891824665
aF7.005516996764633
aF7.004246579170898
aF7.01040211594228
aF7.019654371479546
aF7.019564954034142
aF7.004881989712859
aF7.005970326479092
aF6.996498488816526
aF6.997961546868286
aF6.989150917186131
aF6.990532705439705
aF6.9930151229329605
aF7.009589584863405
aF7.00615160083833
aF7.004246579170898
aF7.0054263061555835
aF7.013375760845821
aF7.0198331823874875
aF7.021708769057982
aF7.023580844487728
aF7.02331361961641
aF7.03191792160256
aF7.041761558829871
aF7.0468213271051345
aF7.058672164298998
aF7.050989447068045
aF7.043247248419294
aF7.047604174098535
aF7.047691119279654
aF7.030149887195743
aF7.0334182969777945
aF7.024293095230089
aF7.033594663821285
aF7.036588150825105
aF7.031829594084064
aF7.034299820307093
aF7.051076098426359
aF7.048299523974445
aF7.044207402117637
aF7.056520052247249
aF7.057811875188817
aF7.062791281081669
aF7.070044182025856
aF7.070129197966396
aF7.061934529829811
aF7.054104175317274
aF7.066722910077782
aF7.084058763450528
aF7.086570696446804
aF7.076738271336911
aF7.0906599990366725
aF7.111919863698544
aF7.1127348596686755
aF7.1048012311744735
aF7.115175869831111
aF7.105786129481271
aF7.095644640079555
aF7.079437100671747
aF7.068938316573527
aF7.062191632286556
aF7.0708940163593175
aF7.073693356525568
aF7.077751186085455
aF7.090743280319252
aF7.094649697621226
aF7.091742115095153
aF7.099036577147563
aF7.098210335672814
aF7.103322062526113
aF7.101593595903758
aF7.092241158605468
aF7.087239480955931
aF7.103815361886605
aF7.098706162474146
aF7.117610935969411
aF7.108571418412256
aF7.102746238876755
aF7.103815361886605
aF7.11175678476798
aF7.104144092987527
aF7.106196217655975
aF7.112327444710911
aF7.11525713430639
aF7.124075604948222
aF7.137119442109403
aF7.11525713430639
aF7.116150607947438
aF7.110532844343474
aF7.113467788566667
aF7.123995053979552
aF7.133694917598348
aF7.1195547285956895
aF7.1128977791867944
aF7.119069134542768
aF7.087155907348428
aF7.0904934156613075
aF7.098706162474146
aF7.094317830033346
aF7.081036091123942
aF7.077498053569231
aF7.080026499922591
aF7.0851480425393385
aF7.09738341095853
aF7.086821543055419
aF7.087406607220212
aF7.092241158605468
aF7.093819822054926
aF7.078594498667058
aF7.082380629141621
aF7.07140357051047
aF7.069448867980125
aF7.075893391259617
aF7.074201486617802
aF7.0769071617274495
aF7.07985813558176
aF7.07326971745971
aF7.054276931644904
aF7.0536721538822915
aF7.055657908905633
aF7.060819654708974
aF7.073439194623068
aF7.068512657860251
aF7.073015447847797
aF7.080615551986579
aF7.081792616188394
aF7.083639493812086
aF7.0935707250303475
aF7.089159748713608
aF7.082044664078827
aF7.083807222762497
aF7.087907818491252
aF7.0992843165270045
aF7.10175834054993
aF7.102417047860697
aF7.108407792460815
aF7.104390570415551
aF7.1127348596686755
aF7.108325969443955
aF7.111512116496157
aF7.107916753904423
aF7.098458279804007
aF7.113956109566034
aF7.117529862557393
aF7.116718766722513
aF7.118826249062078
aF7.117448782571943
aF7.116069416050345
aF7.125041710811949
aF7.12624803208092
aF7.121171674537765
aF7.128656317743567
aF7.128094902963612
aF7.126569472135118
aF7.13385445812198
aF7.124961237629593
aF7.120282677833157
aF7.1252830915107115
aF7.123592201780574
aF7.129217417513809
aF7.141799204764635
aF7.142590218885931
aF7.148109867026701
aF7.1499953259873354
aF7.15030922381617
aF7.147795277956077
aF7.159836080190945
aF7.15999150449962
aF7.163482180192367
aF7.166265974133638
aF7.163559612535895
aF7.158124816549939
aF7.174341388139183
aF7.1671150344293295
aF7.1751070849606675
aF7.183111701743281
aF7.17938418611167
aF7.179841363809362
aF7.1994542727918525
aF7.189771329807291
aF7.189016783630995
aF7.205783643488062
aF7.200648748484451
aF7.200872553923857
aF7.208156123841693
aF7.223441547843516
aF7.217736858928685
aF7.218982965008932
aF7.210005715609315
aF7.191579921106613
aF7.194962238585681
aF7.183643071551207
aF7.181591944611865
aF7.19112807984582
aF7.195187320178709
aF7.191278716285059
aF7.184704964854874
aF7.1873547752405615
aF7.19668657083435
aF7.216048475338027
aF7.207044724475634
aF7.208156123841693
aF7.190299173577794
aF7.206080511532398
aF7.225627022596975
aF7.239286758712179
aF7.235042606026277
aF7.2319380224706125
aF7.23258861706471
aF7.243084004901271
aF7.215239978730097
aF7.221470528480734
aF7.212294468500341
aF7.1925582106830745
aF7.193385247307787
aF7.200723355863156
aF7.201767275128788
aF7.212146964996865
aF7.206525648419339
aF7.212441950249742
aF7.222127966686963
aF7.220885775887505
aF7.208378255566719
aF7.212957965151907
aF7.210005715609315
aF7.217223304755775
aF7.231359360609981
aF7.231793388394572
aF7.23396070610467
aF7.251344983372214
aF7.25063551189868
aF7.241724385385232
aF7.22402480828583
aF7.230128591223848
aF7.22417057025679
aF7.230635562083883
aF7.229983695186501
aF7.238424999233355
aF7.228315879999857
aF7.216709486709457
aF7.2186166243813235
aF7.226281734728899
aF7.226863341433771
aF7.230418320329163
aF7.231793388394572
aF7.22417057025679
aF7.2287512304638515
aF7.224462030474534
aF7.224462030474534
aF7.23294987569369
aF7.244941546337007
aF7.246225518266023
aF7.248006082106699
aF7.256014913319522
aF7.253258045917619
aF7.225990804477374
aF7.218323455220619
aF7.21883644486215
aF7.210596863191741
aF7.220666405479694
aF7.219349171480231
aF7.225044696186576
aF7.227371969964263
aF7.222493023457344
aF7.21170432389779
aF7.215901524566272
aF7.213031659834869
aF7.2156810579109605
aF7.220300681158608
aF7.202661196523238
aF7.198856499479573
aF7.20258673358713
aF7.1946620509661665
aF7.187505981107638
aF7.189092263874078
aF7.177935076297776
aF7.176254532017144
aF7.199230149672614
aF7.187505981107638
aF7.18954502572908
aF7.190299173577794
aF7.18924320727059
aF7.204595289218684
aF7.2031078577381376
aF7.203256700486049
aF7.206822296300482
aF7.213915572679691
aF7.208896371118074
aF7.210744595501065
aF7.21177811102197
aF7.210744595501065
aF7.215901524566272
aF7.221762776601467
aF7.2254814727822945
aF7.230997526832469
aF7.236771214926895
aF7.237490587664918
aF7.2389995880590465
aF7.240793053154715
aF7.23871233491524
aF7.2438703089555085
aF7.249996556923266
aF7.247650222880853
aF7.25063551189868
aF7.263679941530166
aF7.251344983372214
aF7.254177846456518
aF7.26773475692917
aF7.264100168458888
aF7.2605928696896145
aF7.260522598089852
aF7.246368080102461
aF7.247579035836864
aF7.261997265679167
aF7.2570732264673
aF7.230707965515838
aF7.23439360654433
aF7.234898420314831
aF7.248717420876202
aF7.261225091971921
aF7.261084632669773
aF7.258059975913026
aF7.26220775506777
aF7.261225091971921
aF7.260030558576182
aF7.261295314225382
aF7.25162863108366
aF7.252053951852814
aF7.252620764961372
aF7.258482570650967
aF7.253116463020596
aF7.263820036795175
aF7.26494009291507
aF7.2652199110351185
aF7.280008252884188
aF7.281041488726066
aF7.283516907716859
aF7.29505641646263
aF7.285575086269977
aF7.2762105614564
aF7.280008252884188
aF7.28145448432665
aF7.293833673290111
aF7.302900654683446
aF7.297971376327562
aF7.3047849082692
aF7.309145429048272
aF7.31375357825196
aF7.316082952703778
aF7.319533749146894
aF7.314486252211535
aF7.308743715063223
aF7.3154179706337885
aF7.329290567267796
aF7.33400292627283
aF7.342584995720205
aF7.33400292627283
aF7.331125790959136
aF7.317345201667251
aF7.288107686275226
aF7.294852729732116
aF7.306598510781415
aF7.308073832937422
aF7.317278807217803
aF7.310349603665281
aF7.298512758218027
aF7.301822342137932
aF7.3047849082692
aF7.3053898079751125
aF7.294309362198541
aF7.302900654683446
aF7.304112368059574
aF7.304314177619305
aF7.31959999405434
aF7.315684016528275
aF7.322378324875067
aF7.327123292259293
aF7.3230386960276395
aF7.328043315981939
aF7.336611339880877
aF7.335633981927201
aF7.334590412826494
aF7.332565393354078
aF7.32659718413194
aF7.328962494038909
aF7.339992137587729
aF7.3401219402878075
aF7.337067113564582
aF7.333676395657684
aF7.334981878871814
aF7.330274141656129
aF7.331191272411538
aF7.320725486576075
aF7.321056272858076
aF7.322510433997394
aF7.327911935833291
aF7.328108999584052
aF7.33810810259808
aF7.334720918536304
aF7.339018079911442
aF7.340381495152674
aF7.321585303421929
aF7.312086411049099
aF7.311819406174673
aF7.307202314764738
aF7.310416459757567
aF7.313420367092967
aF7.312153151129879
aF7.298850973123
aF7.303977805723369
aF7.306061489891822
aF7.308475816059545
aF7.319798702450424
aF7.3283060245083425
aF7.329487359554173
aF7.340511247326205
aF7.340511247326205
aF7.339732481630412
aF7.355129790167511
aF7.365243415157454
aF7.362581816628025
aF7.373437082578849
aF7.372557906435809
aF7.366571562587296
aF7.366129042745704
aF7.36827659283838
aF7.367329712737334
aF7.377446359389572
aF7.383554580824449
aF7.382684258750366
aF7.38330599465699
aF7.380567460549911
aF7.384237874325581
aF7.38330599465699
aF7.38330599465699
aF7.389007900405763
aF7.409499794011935
aF7.4031829605680315
aF7.403304815195611
aF7.4263109488100385
aF7.427857739528337
aF7.450253973202994
aF7.460662903127495
aF7.457263009340472
aF7.452054362805667
aF7.4568588639581055
aF7.454893545406447
aF7.473580320966732
aF7.483806687665835
aF7.486557257757222
aF7.50917086894249
aF7.524831022590787
aF7.527202096612125
aF7.508732344569952
aF7.462731750483416
aF7.4402641135792695
aF7.4714769121016245
aF7.5069213960711885
aF7.482175228273281
aF7.4863890727533215
aF7.502793366431763
aF7.503565226653125
aF7.509006444837546
aF7.538707855948965
aF7.535937180689723
aF7.529997046026308
aF7.491924296972337
aF7.502958815211956
aF7.509390059035975
aF7.523643373995131
aF7.496374930188148
aF7.494597053171151
aF7.500363634163469
aF7.480484706062943
aF7.4746020034259075
aF7.501579238247297
aF7.479412561954373
aF7.4788478135347765
aF7.4842562774227614
aF7.4512997553108535
aF7.39566021936356
aF7.397377695097025
aF7.3394727582343675
aF7.3869044598875755
aF7.370482499257096
aF7.3670138866916925
aF7.383119514469969
aF7.391846707545491
aF7.392955355109155
aF7.375067790416382
aF7.37619518625169
aF7.397500259136889
aF7.393939788831677
aF7.4013533570815015
aF7.405009222718033
aF7.411677126431333
aF7.415295511756598
aF7.410589052818575
aF7.415295511756598
aF7.424881015296608
aF7.41806076750124
aF7.394554568145273
aF7.40208560021893
aF7.380318130622795
aF7.385230923066573
aF7.400803822645447
aF7.399581552738345
aF7.407074962561926
aF7.438148208240657
aF7.442082562533219
aF7.457263009340472
aF7.462444666394515
aF7.442141167157141
aF7.427144133408616
aF7.447284970876483
aF7.451590056355073
aF7.467028150985755
aF7.469026838228501
aF7.469711183849735
aF7.482794371061753
aF7.475339236566737
aF7.459454095957708
aF7.468456192241776
aF7.488685156421043
aF7.480823039211541
aF7.473353138595107
aF7.469255005476082
aF7.444950157768196
aF7.444833273892193
aF7.447459862298504
aF7.418900851559048
aF7.422433472063617
aF7.424940636700709
aF7.431003422746685
aF7.4217159832436
aF7.428927194802272
aF7.4335483298699145
aF7.440498938049059
aF7.439206720541784
aF7.457897765125078
aF7.460375224405106
aF7.4646244412494545
aF7.448974308067921
aF7.439500553000631
aF7.450079569807499
aF7.441261736971185
aF7.440498938049059
aF7.444599465146681
aF7.4129450511294985
aF7.392093179911025
aF7.35538547925098
aF7.353402176723133
aF7.362010551259734
aF7.376570702591063
aF7.3674560152319755
aF7.373374309910049
aF7.38175092949741
aF7.376946077970846
aF7.379507378761989
aF7.381813178555913
aF7.37650812632622
aF7.371111865506079
aF7.345623038197802
aF7.328108999584052
aF7.344331382115354
aF7.355257642881359
aF7.359085642962252
aF7.373499851307489
aF7.375694278345656
aF7.383616717712033
aF7.383678850738863
aF7.380816728327111
aF7.384796585579523
aF7.396825970945098
aF7.4023905433494
aF7.393386164113572
aF7.398480231041125
aF7.39719382086648
aF7.404218251912291
aF7.404096508547155
aF7.407924322559599
aF7.405495663199472
aF7.416017620344963
aF7.416137921096988
aF7.415415899404971
aF7.408045600832745
aF7.440440237101021
aF7.446935096244656
aF7.459108453924196
aF7.448392100319757
aF7.454141078146678
aF7.457263009340472
aF7.46261692673774
aF7.452286435213299
aF7.454025263681323
aF7.44600149832412
aF7.444307127319008
aF7.452924356770583
aF7.453388044253534
aF7.441496327318869
aF7.451415885841701
aF7.447634723138865
aF7.445475966210772
aF7.449148904314546
aF7.441554966307949
aF7.448566798238384
aF7.453445990074207
aF7.454951404057778
aF7.45633900835073
aF7.46697098689622
aF7.4798641311650265
aF7.47896078873684
aF7.480371902904335
aF7.474431795488133
aF7.476302491308752
aF7.431714281138091
aF7.439206720541784
aF7.441672233971525
aF7.444307127319008
aF7.435261012999326
aF7.417159893592681
aF7.421297210242356
aF7.42845202254339
aF7.425298290495652
aF7.4451838845426614
aF7.43413924166398
aF7.416679095458531
aF7.399031043503412
aF7.399948390600126
aF7.402146596284703
aF7.413487955682118
aF7.409802484936545
aF7.403487569300473
aF7.4067107301776405
aF7.395168969737469
aF7.403670290012373
aF7.415897305118926
aF7.411858356987301
aF7.426251409052347
aF7.411797950451295
aF7.405678017392605
aF7.414392142126673
aF7.420519023378387
aF7.416198066046333
aF7.40184157874383
aF7.385230923066573
aF7.3901814282264295
aF7.3959057537089095
aF7.396887288662872
aF7.399581552738345
aF7.397500259136889
aF7.410528569557299
aF7.409136443920128
aF7.407924322559599
aF7.409318135468943
aF7.403061091090091
aF7.399275751690122
aF7.401170212488334
aF7.3974389789947
aF7.401658523552179
aF7.402268577255823
aF7.392277994327076
aF7.398663868907769
aF7.393632257384163
aF7.403913865704724
aF7.408772961757042
aF7.415776975415394
aF7.407014266376662
aF7.413065722060018
aF7.406953566507148
aF7.396948602621014
aF7.394370174033069
aF7.39982612626448
aF7.398051611495635
aF7.375067790416382
aF7.365243415157454
aF7.3688442908382985
aF7.361629526297989
aF7.364040236086935
aF7.349873704738337
aF7.340381495152674
aF7.3313222224542836
aF7.341094923856281
aF7.3573648560744855
aF7.37167795666187
aF7.3682134953843414
aF7.35321003530646
aF7.335764351525196
aF7.3471063830894385
aF7.3468485680702855
aF7.359658581196086
aF7.360358393547705
aF7.345493947640597
aF7.334916645172062
aF7.347557399494751
aF7.343361544002288
aF7.387585469045608
aF7.3834302954651045
aF7.38566507198647
aF7.388080457299744
aF7.364673668679218
aF7.350516171833998
aF7.377633900414722
aF7.367203394288356
aF7.369348640867902
aF7.381439626067445
aF7.384424146096634
aF7.390366596266955
aF7.3833681469923835
aF7.386718649599344
aF7.3885133711257325
aF7.372620730371749
aF7.355129790167511
aF7.351543261409461
aF7.357301066325476
aF7.356471429084617
aF7.357556200910353
aF7.354106379562644
aF7.344654452579832
aF7.346461720870104
aF7.3758821482150125
aF7.369537706568797
aF7.374378200068395
aF7.384982753317193
aF7.37650812632622
aF7.363025908625808
aF7.362962478985115
aF7.363596594415368
aF7.355257642881359
aF7.357109672660022
aF7.349037879955695
aF7.357109672660022
aF7.370734293290908
aF7.364230307998047
aF7.359913115082284
aF7.357492423366405
aF7.36054916649668
aF7.3613754289773485
aF7.365053535730318
aF7.354490281288518
aF7.358384939044675
aF7.364736989876008
aF7.378446172008009
aF7.384920701255493
aF7.3917234485782455
aF7.3866567051634835
aF7.38454830800392
aF7.372934790862381
aF7.3681503939487625
aF7.369600720526409
aF7.379070547652669
aF7.37994401913321
aF7.383181678396262
aF7.379694533695628
aF7.38374097990542
aF7.381937665049289
aF7.389996225892351
aF7.382559865168914
aF7.3746917091784026
aF7.372243727539763
aF7.378196312552652
aF7.3851688864028855
aF7.387461683689258
aF7.384051567850893
aF7.389378636939915
aF7.398908666950607
aF7.410770480656151
aF7.416077772530009
aF7.420698658719129
aF7.416438609676094
aF7.4129450511294985
aF7.4104075920589665
aF7.409560339527045
aF7.407014266376662
aF7.430884897204292
aF7.4296988684819745
aF7.431358915107343
aF7.431003422746685
aF7.433252742979996
aF7.431714281138091
aF7.457782384947264
aF7.452692432376896
aF7.453851516830047
aF7.454025263681323
aF7.450428346187247
aF7.476245854942527
aF7.478678326796708
aF7.469768191517281
aF7.469083884921234
aF7.475792648499238
aF7.470793774195062
aF7.478000092440748
aF7.4785653196771396
aF7.470679872492108
aF7.472273316944902
aF7.460432766770688
aF7.46885567862175
aF7.477264819083904
aF7.476075926595238
aF7.47477218239787
aF7.4798641311650265
aF7.479186700857986
aF7.483075672928639
aF7.480935791494894
aF7.48228782820584
aF7.4767554667992
aF7.473239528051926
aF7.471420001763846
aF7.472102712150493
aF7.468570347493042
aF7.462559509920338
aF7.455298485683291
aF7.458589766767363
aF7.463248294243287
aF7.461065514354283
aF7.448159122276883
aF7.446234979529944
aF7.448275618083167
aF7.440851071393856
aF7.437618531625265
aF7.441085758088197
aF7.43867760444725
aF7.444657922458246
aF7.4413203897176174
aF7.442141167157141
aF7.444599465146681
aF7.446176614338927
aF7.423269892234259
aF7.4242846056648055
aF7.42201499948241
aF7.42845202254339
aF7.4400292339539975
aF7.446059873736413
aF7.454256879200598
aF7.456685608781673
aF7.453272142538058
aF7.4489161025442
aF7.450370225237535
aF7.442492722794441
aF7.441672233971525
aF7.446643440513011
aF7.447751280047908
aF7.451241684987676
aF7.450428346187247
aF7.454777818059946
aF7.455009259361679
aF7.467028150985755
aF7.464853615078806
aF7.461812791140129
aF7.441965342980864
aF7.4488578936323995
aF7.4434296007175185
aF7.446234979529944
aF7.445826351638323
aF7.433134483755639
aF7.429402141379711
aF7.430114138561801
aF7.4296988684819745
aF7.439911773449957
aF7.439853038023667
aF7.441379039024106
aF7.442902714893194
aF7.432128715293397
aF7.434434566671295
aF7.43543801981455
aF7.4304699471405415
aF7.415476087794649
aF7.4164987365438035
aF7.399703846978438
aF7.399703846978438
aF7.412582950944492
aF7.409560339527045
aF7.409257575287244
aF7.410286599923308
aF7.410589052818575
aF7.411737540266119
aF7.4124018516714125
aF7.4205789054108005
aF7.4205789054108005
aF7.414934261827931
aF7.393755281312472
aF7.411797950451295
aF7.4044008391742935
aF7.4065892898957495
aF7.409378691983329
aF7.410649532421847
aF7.4104680826375775
aF7.4139100110982294
aF7.414813816178884
aF7.418300863540809
aF7.4226127638614985
aF7.418900851559048
aF7.428749031663754
aF7.4293427853921585
aF7.4299361867862626
aF7.430884897204292
aF7.428689636896416
aF7.417580402414544
aF7.4122811005996
aF7.413487955682118
aF7.409802484936545
aF7.4124622217399505
aF7.416137921096988
aF7.4133673356952405
aF7.414392142126673
aF7.417700515320821
aF7.415656631230881
aF7.418780882750794
aF7.419440533160009
aF7.4164987365438035
aF7.417580402414544
aF7.418120796915671
aF7.404887575616125
aF7.401902589695315
aF7.40263443091844
aF7.397929115017256
aF7.376758407894289
aF7.3832438384584425
aF7.382124365737512
aF7.378133837932945
aF7.351350762451569
aF7.349230824613334
aF7.359340322703854
aF7.3637867506609895
aF7.361947057180535
aF7.368718163575723
aF7.372997591126162
aF7.361756550750367
aF7.3555132992805525
aF7.364103597404871
aF7.3583212143353975
aF7.359913115082284
aF7.357301066325476
aF7.361756550750367
aF7.353786348836963
aF7.363342996493512
aF7.362454896968
aF7.365116832878804
aF7.368087288531141
aF7.36353320096389
aF7.370482499257096
aF7.378571078328431
aF7.372495078552774
aF7.377946390651944
aF7.379819284194792
aF7.380380468932824
aF7.380068738514763
aF7.379507378761989
aF7.371489295214277
aF7.374252768898585
aF7.372306571216138
aF7.373813635865588
aF7.372934790862381
aF7.3748797674770294
aF7.3745036155072
aF7.361248356100883
aF7.346139233847411
aF7.339862318036722
aF7.345558495002246
aF7.3632161734115416
aF7.35698205652917
aF7.3588945905814755
aF7.348523178792688
aF7.348072597857512
aF7.303035362031936
aF7.298512758218027
aF7.199080706348717
aF7.186825374585354
aF7.21920270498418
aF7.2004995170261825
aF7.234249327219307
aF7.247650222880853
aF7.247365444294277
aF7.24857519359677
aF7.254036393736854
aF7.26325953793653
aF7.278421881547606
aF7.28749223851757
aF7.288039321893042
aF7.286807963138468
aF7.272606704205004
aF7.278628942320682
aF7.284134806195205
aF7.291860547968892
aF7.289337446626969
aF7.273439517078457
aF7.277524122432028
aF7.281592111632125
aF7.258130420772341
aF7.270243294235161
aF7.262768843594204
aF7.259186498597816
aF7.237059026124737
aF7.222711993568799
aF7.212220719468264
aF7.19975302550152
aF7.200723355863156
aF7.21501936616164
aF7.21118766152515
aF7.212884265037639
aF7.231359360609981
aF7.232877634407763
aF7.23294987569369
aF7.225335901779781
aF7.22983877815125
aF7.235979306746854
aF7.233166568243925
aF7.236195343906085
aF7.2376344001337065
aF7.236699249182559
aF7.241008052976377
aF7.2382813004258075
aF7.22802554102707
aF7.229041358847695
aF7.226936018493289
aF7.220520131801381
aF7.225408689929902
aF7.225627022596975
aF7.228606134700393
aF7.236267345922173
aF7.230345895922107
aF7.215901524566272
aF7.20251226510588
aF7.151720545988645
aF7.146220846394131
aF7.167500732740895
aF7.151407090927697
aF7.148031229036648
aF7.108816807150144
aF7.088826053874439
aF7.073693356525568
aF7.117448782571943
aF7.111838327557605
aF7.1223019830708285
aF7.120040086961471
aF7.127051438567453
aF7.096886927704641
aF7.104472716059824
aF7.103239822302372
aF7.117448782571943
aF7.126006884215919
aF7.154537228861746
aF7.1451172675339025
aF7.158358343192497
aF7.151485463904735
aF7.152425460840627
aF7.147716615222507
aF7.150544582543182
aF7.156332631553157
aF7.166960713441369
aF7.178850547829519
aF7.190449934922871
aF7.180069874302796
aF7.1770187659099
aF7.179993709940065
aF7.1929342212158
aF7.187505981107638
aF7.184098306763924
aF7.175260153995101
aF7.172040773627522
aF7.15711223711225
aF7.17869802742962
aF7.168502852693713
aF7.15445909470536
aF7.1493672345793895
aF7.157190164250415
aF7.174111564719166
aF7.180983394463768
aF7.1873547752405615
aF7.1846291527173145
aF7.182352111885263
aF7.1846291527173145
aF7.213473713920017
aF7.226136280183188
aF7.216856318807218
aF7.210449109054355
aF7.211851892702013
aF7.212589410251484
aF7.221470528480734
aF7.237850080065525
aF7.236915130880227
aF7.241223006583051
aF7.253682674374105
aF7.246368080102461
aF7.238568677394522
aF7.225699789560806
aF7.229766311757508
aF7.232877634407763
aF7.233455418621439
aF7.21883644486215
aF7.214651570357722
aF7.234032869193281
aF7.231214642809439
aF7.21340005180809
aF7.212957965151907
aF7.185689999979038
aF7.173958319756794
aF7.1891677384203225
aF7.172808233373557
aF7.174188178394744
aF7.16371445923797
aF7.214136428866403
aF7.19112807984582
aF7.188563782490745
aF7.181135566723058
aF7.175489713624222
aF7.182580049431362
aF7.184250005793341
aF7.185841457760471
aF7.1978095355789735
aF7.188035021667156
aF7.156800467819
aF7.153442794731241
aF7.171887210973657
aF7.174800876583475
aF7.1790792848211
aF7.176713142435639
aF7.182276121156095
aF7.166034287064601
aF7.1569563646156364
aF7.141007564444634
aF7.148109867026701
aF7.145748033146552
aF7.13289683295902
aF7.1465359310757455
aF7.150230758595839
aF7.179307969504034
aF7.180069874302796
aF7.180450609125595
aF7.177935076297776
aF7.1924829916074815
aF7.194361773206985
aF7.1976598797870155
aF7.20823017323267
aF7.205115367985189
aF7.201394571908045
aF7.196836372347625
aF7.184553334831839
aF7.17518362240665
aF7.182124122371793
aF7.178926799306929
aF7.174647737226362
aF7.176865965848482
aF7.167732080341696
aF7.155630466515531
aF7.160069207596127
aF7.153911984605347
aF7.140136035648829
aF7.143301597013389
aF7.153286349173976
aF7.154693478862064
aF7.162164912170345
aF7.147559271189454
aF7.146142059709041
aF7.123914496521902
aF7.120363528380964
aF7.123753362135475
aF7.125443979613383
aF7.112816322745581
aF7.123431015448826
aF7.119797437225173
aF7.118664292628004
aF7.123511611862329
aF7.131938289871009
aF7.104719112512962
aF7.103404295986953
aF7.099614540256581
aF7.104308418022816
aF7.101346428034322
aF7.113630588729827
aF7.111185798986327
aF7.121010097545977
aF7.131538625583686
aF7.110206207071258
aF7.107425474110705
aF7.121413991085132
aF7.112653389954997
aF7.113386378545049
aF7.1035687426243905
aF7.079184394609668
aF7.082212660719289
aF7.092324308316571
aF7.0841425962879
aF7.090826554666638
aF7.097300680865411
aF7.101511213401754
aF7.085985142872835
aF7.077498053569231
aF7.092906162786251
aF7.094068857045629
aF7.109389146808464
aF7.118340301048951
aF7.117043284005906
aF7.110696122978827
aF7.1055399958294565
aF7.109634334991623
aF7.112653389954997
aF7.128976984733648
aF7.126167655920446
aF7.124236687422797
aF7.118340301048951
aF7.119878327012882
aF7.121171674537765
aF7.1331363252365385
aF7.133615137790575
aF7.119473812626879
aF7.119392890110145
aF7.115988217560592
aF7.136642304923413
aF7.146614686736349
aF7.132497551660044
aF7.1301785709718635
aF7.131458673554861
aF7.121413991085132
aF7.121656248929415
aF7.124397743953987
aF7.123672785204607
aF7.129057135416976
aF7.13289683295902
aF7.133295954896068
aF7.135607726024081
aF7.142985491431494
aF7.142827401161621
aF7.149524294419511
aF7.157657599597038
aF7.1592919047975645
aF7.169888747587542
aF7.184098306763924
aF7.186144304522325
aF7.179612801086947
aF7.176789557061435
aF7.176025147912457
aF7.182276121156095
aF7.187732747048365
aF7.184553334831839
aF7.193986299166603
aF7.1874303810320015
aF7.188261667684823
aF7.185159717022784
aF7.190072988934768
aF7.197734710482601
aF7.193911187437871
aF7.194737106319525
aF7.193760947052973
aF7.192783833968354
aF7.1976598797870155
aF7.1924829916074815
aF7.198707000301541
aF7.204297979866115
aF7.218396755568828
aF7.220812657765146
aF7.234321469483884
aF7.217003129348479
aF7.208378255566719
aF7.189620466112353
aF7.185765731737187
aF7.192182058713246
aF7.192783833968354
aF7.176178076495106
aF7.174571158752533
aF7.169042040074387
aF7.161699579449059
aF7.158980814423303
aF7.164565687766831
aF7.156488601295344
aF7.152582041127489
aF7.1548497044521335
aF7.1560206190701265
aF7.157735484249907
aF7.170504084888706
aF7.166806368634765
aF7.167732080341696
aF7.170734738793546
aF7.1783166246255
aF7.1808311990445555
aF7.185538519254671
aF7.184932366788771
aF7.162630028457801
aF7.165725287448392
aF7.164797715301805
aF7.166574806748817
aF7.163017460177807
aF7.156332631553157
aF7.152582041127489
aF7.1553182348370905
aF7.145432700073384
aF7.162552524098142
aF7.172040773627522
aF7.163946684342547
aF7.159525159084669
aF7.158358343192497
aF7.152738596900803
aF7.151485463904735
aF7.169657898446431
aF7.170042617413974
aF7.173575104576783
aF7.159680631721799
aF7.159136371707587
aF7.158825232937186
aF7.154771594707903
aF7.156254637558655
aF7.161777149941283
aF7.16371445923797
aF7.163404741852606
aF7.160690615104083
aF7.162630028457801
aF7.163559612535895
aF7.159136371707587
aF7.157579708877678
aF7.162164912170345
aF7.1604576325378915
aF7.16286250550174
aF7.163017460177807
aF7.141165942652124
aF7.135528098680009
aF7.132098110871829
aF7.124719779219631
aF7.1284959456800365
aF7.123592201780574
aF7.123995053979552
aF7.125041710811949
aF7.123833932574225
aF7.128014675116484
aF7.132018203564263
aF7.1308988302963465
aF7.131778443323355
aF7.1376758145753705
aF7.138628876358258
aF7.1471658027602185
aF7.151798894404089
aF7.147244508832433
aF7.137755271092833
aF7.143696588526208
aF7.151250326544244
aF7.175030541656255
aF7.179765182039622
aF7.177553382335358
aF7.180678980458373
aF7.178240326605397
aF7.175030541656255
aF7.179612801086947
aF7.181287715829476
aF7.178164022763461
aF7.188035021667156
aF7.186220001884308
aF7.1783166246255
aF7.184325846679199
aF7.182428096840278
aF7.17938418611167
aF7.180298332591114
aF7.183643071551207
aF7.190525307072897
aF7.1957123136283485
aF7.198781752684307
aF7.1725780572878355
aF7.164178855531146
aF7.1659570461114095
aF7.169196040228691
aF7.173881688468201
aF7.1774006639477665
aF7.175719220567815
aF7.171580014903351
aF7.172424577124845
aF7.160612960279738
aF7.162939985841142
aF7.173268426662856
aF7.171119043782712
aF7.16703787691222
aF7.164488333289902
aF7.1553182348370905
aF7.155083997084701
aF7.164410972828795
aF7.159136371707587
aF7.1565665770449245
aF7.160690615104083
aF7.171503201138287
aF7.174800876583475
aF7.1765602956642285
aF7.173958319756794
aF7.1742647862011175
aF7.173881688468201
aF7.176942368797674
aF7.164565687766831
aF7.171042194599196
aF7.166883544015857
aF7.165416192321907
aF7.161389237294346
aF7.149210150067599
aF7.1501522872182335
aF7.150623023144076
aF7.150544582543182
aF7.151250326544244
aF7.155083997084701
aF7.1569563646156364
aF7.1574239092357015
aF7.156488601295344
aF7.140928365933525
aF7.1397396349618285
aF7.136483208590247
aF7.13743740713593
aF7.14409142408233
aF7.132018203564263
aF7.128816664092023
aF7.125926488669789
aF7.119473812626879
aF7.112653389954997
aF7.111022600291554
aF7.112816322745581
aF7.116312971967928
aF7.103322062526113
aF7.103733162223577
aF7.101511213401754
aF7.093819822054926
aF7.097300680865411
aF7.081540504753805
aF7.076400404959848
aF7.076315920526055
aF7.092324308316571
aF7.094151854929231
aF7.105622047111554
aF7.104226258880511
aF7.109552612276748
aF7.110940990955401
aF7.1138747392905515
aF7.108080460215667
aF7.119150083261799
aF7.116312971967928
aF7.118664292628004
aF7.118340301048951
aF7.126971126958367
aF7.123108564821284
aF7.111593679238341
aF7.113711978873526
aF7.112571913603462
aF7.110777752300125
aF7.108735017594625
aF7.097548850614793
aF7.086570696446804
aF7.057725805558432
aF7.0591020314766615
aF7.057467552210464
aF7.0594457922225695
aF7.036851852316547
aF7.037203346169024
aF7.031829594084064
aF7.065015405180721
aF7.045253792167771
aF7.044032897274685
aF7.0536721538822915
aF7.0512493786208665
aF7.045515218686623
aF7.075724329551691
aF7.07470935864497
aF7.07597791139659
aF7.069108529339895
aF7.0704691894698835
aF7.079605535908796
aF7.090826554666638
aF7.083891076689006
aF7.0825485693553
aF7.085817778855708
aF7.078172931273267
aF7.060819654708974
aF7.04141166379481
aF7.044643531044259
aF7.083471736723956
aF7.085650386823178
aF7.090993082560445
aF7.078931624671093
aF7.079268637059489
aF7.080363143588452
aF7.089409946788388
aF7.110532844343474
aF7.103239822302372
aF7.103239822302372
aF7.10734357067481
aF7.082464602773951
aF7.07985813558176
aF7.0769071617274495
aF7.081036091123942
aF7.085315518674381
aF7.084729229449496
aF7.065186286930966
aF7.066978784530114
aF7.067149331132387
aF7.070129197966396
aF7.084896775734549
aF7.0725067145826275
aF7.074116816197362
aF7.07462473121717
aF7.07656935241759
aF7.063561730120337
aF7.0722522508635395
aF7.075386120366088
aF7.09140928100987
aF7.097631560180201
aF7.093985852272807
aF7.0964730032813295
aF7.108735017594625
aF7.1052117233603616
aF7.1127348596686755
aF7.110940990955401
aF7.111512116496157
aF7.1347314763165235
aF7.150936724032854
aF7.148424357162165
aF7.149838340115741
aF7.158436173289435
aF7.154302808075363
aF7.158825232937186
aF7.163327297515685
aF7.151485463904735
aF7.149131598557407
aF7.155474362862388
aF7.1325774206749015
aF7.136880901973894
aF7.1539901615197445
aF7.1501522872182335
aF7.135528098680009
aF7.136164939968847
aF7.136244516621099
aF7.114281524472909
aF7.118340301048951
aF7.118745274123777
aF7.115582126184454
aF7.104144092987527
aF7.105786129481271
aF7.108980366195325
aF7.112571913603462
aF7.113630588729827
aF7.09307234475589
aF7.088492247645854
aF7.094400807256147
aF7.088742612762955
aF7.090743280319252
aF7.082968296538797
aF7.083052220839127
aF7.090826554666638
aF7.09307234475589
aF7.093736796607579
aF7.100357145183648
aF7.093819822054926
aF7.08631978689838
aF7.088575709649825
aF7.087072326755793
aF7.059531713947931
aF7.063304979723102
aF7.060991254880995
aF7.052634540300222
aF7.045166634805097
aF7.047169334764815
aF7.048733872241709
aF7.0522884297144355
aF7.047778056901964
aF7.04141166379481
aF7.043858361974477
aF7.056261487281361
aF7.063476153978913
aF7.07766681569941
aF7.0725067145826275
aF7.07766681569941
aF7.078763075875818
aF7.085231784112892
aF7.084058763450528
aF7.086821543055419
aF7.075132388390269
aF7.071997722376186
aF7.074032138607236
aF7.085901464365611
aF7.09140928100987
aF7.101181615508198
aF7.101428824112316
aF7.096224566362326
aF7.088325302737285
aF7.0841425962879
aF7.084394052640594
aF7.095727507284906
aF7.086905144610457
aF7.076738271336911
aF7.080699673963495
aF7.086068814378553
aF7.087824300722798
aF7.09307234475589
aF7.082800426805315
aF7.084226422097916
aF7.0782572589707495
aF7.076738271336911
aF7.069023426578259
aF7.072082572403813
aF7.071912865148421
aF7.089326554385387
aF7.091242822416061
aF7.0708940163593175
aF7.065100849705915
aF7.071148825890573
aF7.071488470964739
aF7.0782572589707495
aF7.080363143588452
aF7.0726763210959245
aF7.07470935864497
aF7.07985813558176
aF7.07284589884773
aF7.074032138607236
aF7.0825485693553
aF7.100192169517185
aF7.099366882683184
aF7.109062135687172
aF7.107753020789034
aF7.094981455109547
aF7.092989257223127
aF7.091492499917254
aF7.091658916958743
aF7.092823061444117
aF7.092241158605468
aF7.078004254541822
aF7.07656935241759
aF7.073947453846208
aF7.078931624671093
aF7.081204257272494
aF7.076991596227436
aF7.078088596464025
aF7.07326971745971
aF7.067149331132387
aF7.058672164298998
aF7.063903961472068
aF7.064588073008926
aF7.067234593527459
aF7.069193624859667
aF7.070639141883617
aF7.0704691894698835
aF7.073862761913064
aF7.067149331132387
aF7.069874128458572
aF7.068512657860251
aF7.076653815443951
aF7.088575709649825
aF7.087740775978544
aF7.075132388390269
aF7.070129197966396
aF7.065698757048091
aF7.066381642264557
aF7.063818414613725
aF7.075301550193937
aF7.068172000388042
aF7.062448668658617
aF7.062448668658617
aF7.053585727193677
aF7.060648025085279
aF7.066040257947851
aF7.058930106779255
aF7.046212022129153
aF7.044992297287222
aF7.052548023883678
aF7.054276931644904
aF7.05738145293795
aF7.048473285921016
aF7.049949044685312
aF7.042111331481216
aF7.040974122768359
aF7.030769054877282
aF7.030061403366105
aF6.990348577285991
aF7.001427754844772
aF6.991268879209954
aF6.991268879209954
aF6.982213189900147
aF6.998600962281714
aF6.993106946081641
aF6.995308175989998
aF6.994299880382323
aF6.9873979066343335
aF6.984623723238714
aF6.9964069765767
aF6.98804411021094
aF6.985641817639208
aF6.987305557740146
aF6.9877672169515215
aF6.987674902158011
aF6.99567457702002
aF6.993474154384675
aF6.9976873864827445
aF7.004791241493732
aF7.015353289580155
aF7.013555697868348
aF7.015263486697422
aF7.015443084399054
aF7.011935097891801
aF7.017864501662167
aF7.032889009738903
aF7.04647319829396
aF7.056520052247249
aF7.045776576879511
aF7.034035444892467
aF7.019028281391566
aF7.019743780930185
aF7.024293095230089
aF7.031034295142308
aF7.026337994809085
aF7.033770999564997
aF7.032094553237744
aF7.022778955550919
aF7.018670339553292
aF7.021351785564677
aF7.018759837025049
aF7.019922575852885
aF7.004337376828381
aF7.0067858024450915
aF7.002246942074855
aF7.007419602095083
aF7.006060967766261
aF7.005244900259394
aF7.006514051005401
aF7.016968363955454
aF7.027580672050486
aF7.036148493750536
aF7.030061403366105
aF7.022244005466835
aF7.022778955550919
aF7.030326831370318
aF7.039397388033852
aF7.042460981834428
aF7.028112775645871
aF7.025004839032377
aF7.013915474810528
aF7.013195791440134
aF7.007057480055999
aF7.035796628863021
aF7.029972911706386
aF7.034123577796944
aF7.040361243530159
aF7.036148493750536
aF7.038432602623753
aF7.05168244778878
aF7.0519421992946345
aF7.048994390674862
aF7.0593598631140315
aF7.068853199324465
aF7.0687680748298405
aF7.069023426578259
aF7.063390570513586
aF7.0623629972085755
aF7.0593598631140315
aF7.058844133344993
aF7.055399120894699
aF7.057983992228828
aF7.058156079649662
aF7.057036981697891
aF7.0496020032103734
aF7.0427231393926215
aF7.03852034886169
aF7.04009846596985
aF7.032359442206668
aF7.016161152825924
aF7.008776393040865
aF7.005607679149642
aF6.98961172545197
aF6.993382364949574
aF6.992555880674602
aF6.98961172545197
aF6.988413181999592
aF6.979796831847108
aF6.984438503753095
aF6.98804411021094
aF6.985826814402293
aF6.971011728617152
aF6.971105594482899
aF6.975133514312085
aF6.980633924394709
aF6.982213189900147
aF6.9726062513017535
aF6.974198235530851
aF6.97354301952014
aF6.97522699409715
aF6.959018572919678
aF6.963189985870238
aF6.9594934743865515
aF6.968850378341948
aF6.957972995142755
aF6.952824242349715
aF6.964230125910116
aF6.989980219237807
aF6.973917481235806
aF6.97307474510278
aF6.9749465285224606
aF6.975040025787734
aF6.968191647785968
aF6.979331477471359
aF6.964702559423887
aF6.965646757397915
aF6.966778619431598
aF6.9541616517962925
aF6.957592513829309
aF6.971574791695091
aF6.969508675257619
aF6.976908137670454
aF6.973823878951841
aF6.975320465144561
aF6.980633924394709
aF6.972137537911405
aF6.972887373919919
aF6.965269185182744
aF6.964419126099679
aF6.967532483017997
aF6.9680033593274935
aF6.978027331967469
aF6.980168959491182
aF6.995033287089198
aF6.997138840116823
aF7.006423450778838
aF6.9972302854097395
aF6.98813639092895
aF6.984253249954862
aF6.976628143268512
aF6.981098673206347
aF6.9930151229329605
aF6.991820654099804
aF6.9871208343628775
aF6.991636762962839
aF6.996223926969745
aF6.9975959829819265
aF7.00033446027523
aF7.000790144949327
aF7.009589584863405
aF7.016430295607793
aF7.013285780191601
aF7.011033628435639
aF7.017237289599134
aF7.018133186451746
aF7.023046323316872
aF7.024826950567975
aF7.038257087046295
aF7.043683796206381
aF7.0601329594030195
aF7.0597894348376355
aF7.078004254541822
aF7.074370805954474
aF7.088492247645854
aF7.116637620944077
aF7.115419643447887
aF7.091575711899828
aF7.082464602773951
aF7.086570696446804
aF7.0906599990366725
aF7.106524167154692
aF7.109470882882726
aF7.091825306310208
aF7.095893221097532
aF7.107425474110705
aF7.109634334991623
aF7.0997796112374765
aF7.10365095580321
aF7.106852009137794
aF7.112490430612992
aF7.110451195027242
aF7.12068686521993
aF7.131618571220696
aF7.137596351744068
aF7.1363240869414115
aF7.138866999945524
aF7.125604841835237
aF7.120525209868786
aF7.1297782026276435
aF7.131378715133198
aF7.114281524472909
aF7.111593679238341
aF7.112571913603462
aF7.134332927030629
aF7.129057135416976
aF7.132976670091312
aF7.123511611862329
aF7.125202637751466
aF7.102828519701255
aF7.10052209363763
aF7.103897554793403
aF7.097052449512517
aF7.096886927704641
aF7.102746238876755
aF7.109552612276748
aF7.1098794630722715
aF7.097962330050082
aF7.105047546705913
aF7.102005406641365
aF7.102252411706226
aF7.104226258880511
aF7.109470882882726
aF7.114281524472909
aF7.122705355267819
aF7.126087273299125
aF7.131938289871009
aF7.116962164557473
aF7.109552612276748
aF7.110777752300125
aF7.118421308785234
aF7.112979228993396
aF7.112979228993396
aF7.124880757970784
aF7.125604841835237
aF7.112653389954997
aF7.115419643447887
aF7.114769448366463
aF7.11590701247711
aF7.123108564821284
aF7.121010097545977
aF7.142590218885931
aF7.1630252072813585
aF7.160667319289952
aF7.153763431628346
aF7.148392912598927
aF7.146496550919402
aF7.151124897341026
aF7.1574472807294915
aF7.138612999436157
aF7.137238690842526
aF7.146575309681355
aF7.14147470802852
aF7.142068219775712
aF7.148974477023577
aF7.1474805898880245
aF7.1465359310757455
aF7.134811167116262
aF7.126167655920446
aF7.129938369201223
aF7.12536353879767
aF7.111593679238341
aF7.104636987107422
aF7.105293801580952
aF7.106114213473716
a.